; ModuleID = '/home/vlsi1_010hs23/ex7/vivado_hls/filter/solution1/.autopilot/db/a.o.bc'
target datalayout = "e-p:64:64:64-i1:8:8-i8:8:8-i16:16:16-i32:32:32-i64:64:64-f32:32:32-f64:64:64-v64:64:64-v128:128:128-a0:0:64-s0:64:64-f80:128:128-n8:16:32:64-S128"
target triple = "x86_64-unknown-linux-gnu"

%"class.std::ios_base::Init" = type {}
%struct.ap_fixed = type { %struct.ap_fixed_base }
%struct.ap_fixed_base = type { %struct.ssdm_int }
%struct.ssdm_int = type { i28 }
%struct.pixel_t = type { %struct.ap_uint, %struct.ap_uint, %struct.ap_uint }
%struct.ap_uint = type { %struct.ap_int_base }
%struct.ap_int_base = type { %struct.ssdm_int.0 }
%struct.ssdm_int.0 = type { i8 }
%"class.std::locale::id" = type { i64 }
%"class.std::basic_istream" = type { i32 (...)**, i64, %"class.std::basic_ios" }
%"class.std::basic_ios" = type { %"class.std::ios_base", %"class.std::basic_ostream"*, i8, i1, %"class.std::basic_streambuf"*, %"class.std::ctype"*, %"class.std::num_put"*, %"class.std::num_get"* }
%"class.std::ios_base" = type { i32 (...)**, i64, i64, i17, i17, i17, %"struct.std::ios_base::_Callback_list"*, %"struct.std::ios_base::_Words", [8 x %"struct.std::ios_base::_Words"], i32, %"struct.std::ios_base::_Words"*, %"class.std::locale" }
%"struct.std::ios_base::_Callback_list" = type { %"struct.std::ios_base::_Callback_list"*, void (i2, %"class.std::ios_base"*, i32)*, i32, i32 }
%"struct.std::ios_base::_Words" = type { i8*, i64 }
%"class.std::locale" = type { %"class.std::locale::_Impl"* }
%"class.std::locale::_Impl" = type { i32, %"class.std::locale::facet"**, i64, %"class.std::locale::facet"**, i8** }
%"class.std::locale::facet" = type { i32 (...)**, i32 }
%"class.std::basic_ostream" = type { i32 (...)**, %"class.std::basic_ios" }
%"class.std::basic_streambuf" = type { i32 (...)**, i8*, i8*, i8*, i8*, i8*, i8*, %"class.std::locale" }
%"class.std::ctype" = type { %"class.std::locale::facet", %struct.__locale_struct*, i1, i32*, i32*, i16*, i8, [256 x i8], [256 x i8], i8 }
%struct.__locale_struct = type { [13 x %"class.std::ios_base::Init"*], i16*, i32*, i32*, [13 x i8*] }
%"class.std::num_put" = type { %"class.std::locale::facet" }
%"class.std::num_get" = type { %"class.std::locale::facet" }
%"class.std::basic_istream.3" = type { i32 (...)**, i64, %"class.std::basic_ios.5" }
%"class.std::basic_ios.5" = type { %"class.std::ios_base", %"class.std::basic_ostream.6"*, i32, i1, %"class.std::basic_streambuf.7"*, %"class.std::ctype.8"*, %"class.std::num_put.9"*, %"class.std::num_get.10"* }
%"class.std::basic_ostream.6" = type { i32 (...)**, %"class.std::basic_ios.5" }
%"class.std::basic_streambuf.7" = type { i32 (...)**, i32*, i32*, i32*, i32*, i32*, i32*, %"class.std::locale" }
%"class.std::ctype.8" = type { %"class.std::__ctype_abstract_base", %struct.__locale_struct*, i1, [128 x i8], [256 x i32], [16 x i16], [16 x i64] }
%"class.std::__ctype_abstract_base" = type { %"class.std::locale::facet" }
%"class.std::num_put.9" = type { %"class.std::locale::facet" }
%"class.std::num_get.10" = type { %"class.std::locale::facet" }
%struct.ap_fixed_base.1 = type { %struct.ssdm_int.2 }
%struct.ssdm_int.2 = type { i36 }
%struct.ap_fixed_base.18 = type { %struct.ssdm_int.19 }
%struct.ssdm_int.19 = type { i37 }
%struct.ap_fixed_base.14 = type { %struct.ssdm_int.15 }
%struct.ssdm_int.15 = type { i32 }
%struct.ap_int_base.12 = type { %struct.ssdm_int.13 }
%struct.ssdm_int.13 = type { i18 }
%struct.ap_fixed_base.16 = type { %struct.ssdm_int.17 }
%struct.ssdm_int.17 = type { i42 }
%struct.ap_int_base.24 = type { %"class.std::locale::id" }
%struct.ap_int_base.26 = type { %struct.ssdm_int.27 }
%struct.ssdm_int.27 = type { i12 }
%struct.ap_int_base.28 = type { %struct.ssdm_int.29 }
%struct.ssdm_int.29 = type { i11 }
%struct.ap_int_base.30 = type { %struct.ssdm_int.31 }
%struct.ssdm_int.31 = type { i33 }
%struct.ap_int_base.32 = type { %struct.ssdm_int.33 }
%struct.ssdm_int.33 = type { i54 }
%struct.ap_int_base.34 = type { %struct.ssdm_int.35 }
%struct.ssdm_int.35 = type { i55 }
%struct.ap_int_base.36 = type { %struct.ssdm_int.37 }
%struct.ssdm_int.37 = type { i1 }

@_ZStL8__ioinit = internal global %"class.std::ios_base::Init" zeroinitializer, align 1 ; [#uses=2 type=%"class.std::ios_base::Init"*]
@_ZL11FILTER_BIAS = internal global %struct.ap_fixed zeroinitializer, align 4 ; [#uses=3 type=%struct.ap_fixed*]
@_ZL11FILTER_COEF = internal global [3 x [3 x %struct.ap_fixed]] zeroinitializer, align 16 ; [#uses=13 type=[3 x [3 x %struct.ap_fixed]]*]
@.str = private unnamed_addr constant [1 x i8] zeroinitializer, align 1 ; [#uses=1 type=[1 x i8]*]
@.str3 = private unnamed_addr constant [5 x i8] c"axis\00", align 1 ; [#uses=1 type=[5 x i8]*]
@.str4 = private unnamed_addr constant [5 x i8] c"both\00", align 1 ; [#uses=1 type=[5 x i8]*]
@_ZZ10filter_hlsPK7pixel_tPS_E5lines = internal global [2 x [1920 x %struct.pixel_t]] zeroinitializer, align 16 ; [#uses=6 type=[2 x [1920 x %struct.pixel_t]]*]
@_ZGVZ10filter_hlsPK7pixel_tPS_E5lines = internal global i8 0 ; [#uses=2 type=i8*]
@_ZZ10filter_hlsPK7pixel_tPS_E6window = internal global [3 x [3 x %struct.pixel_t]] zeroinitializer, align 16 ; [#uses=8 type=[3 x [3 x %struct.pixel_t]]*]
@_ZGVZ10filter_hlsPK7pixel_tPS_E6window = internal global i8 0 ; [#uses=2 type=i8*]
@.str5 = private unnamed_addr constant [7 x i8] c"y_loop\00", align 1 ; [#uses=1 type=[7 x i8]*]
@.str6 = private unnamed_addr constant [7 x i8] c"x_loop\00", align 1 ; [#uses=1 type=[7 x i8]*]
@_ZL21ssdm_global_array_ins = internal global %"class.std::ios_base::Init" zeroinitializer, align 1 ; [#uses=1 type=%"class.std::ios_base::Init"*]
@signgam = external global i32                    ; [#uses=0 type=i32*]
@_ZN9__gnu_cxx24__numeric_traits_integer11__is_signedE = external constant i1 ; [#uses=0 type=i1*]
@_ZN9__gnu_cxx24__numeric_traits_integer8__digitsE = external constant i32 ; [#uses=0 type=i32*]
@_ZN9__gnu_cxx25__numeric_traits_floating14__max_digits10E = external constant i32 ; [#uses=0 type=i32*]
@_ZN9__gnu_cxx25__numeric_traits_floating11__is_signedE = external constant i1 ; [#uses=0 type=i1*]
@_ZN9__gnu_cxx25__numeric_traits_floating10__digits10E = external constant i32 ; [#uses=0 type=i32*]
@_ZN9__gnu_cxx25__numeric_traits_floating16__max_exponent10E = external constant i32 ; [#uses=0 type=i32*]
@__daylight = external global i32                 ; [#uses=0 type=i32*]
@daylight = external global i32                   ; [#uses=0 type=i32*]
@getdate_err = external global i32                ; [#uses=0 type=i32*]
@optarg = external global i8*                     ; [#uses=0 type=i8**]
@optind = external global i32                     ; [#uses=0 type=i32*]
@opterr = external global i32                     ; [#uses=0 type=i32*]
@optopt = external global i32                     ; [#uses=0 type=i32*]
@_ZSt7nothrow = external global %"class.std::ios_base::Init" ; [#uses=0 type=%"class.std::ios_base::Init"*]
@_ZNSt6locale7_S_onceE = external global i32      ; [#uses=0 type=i32*]
@_ZNSt6locale5facet7_S_onceE = external global i32 ; [#uses=0 type=i32*]
@_ZNSt6locale2id11_S_refcountE = external global i32 ; [#uses=0 type=i32*]
@_ZNSt7collate2idE = external global %"class.std::locale::id" ; [#uses=0 type=%"class.std::locale::id"*]
@_ZNSt8ios_base4Init11_S_refcountE = external global i32 ; [#uses=0 type=i32*]
@_ZNSt8ios_base4Init20_S_synced_with_stdioE = external global i1 ; [#uses=0 type=i1*]
@_ZNSt5ctype2idE = external global %"class.std::locale::id" ; [#uses=0 type=%"class.std::locale::id"*]
@_ZNSt5ctypeIcE2idE = external global %"class.std::locale::id" ; [#uses=0 type=%"class.std::locale::id"*]
@_ZNSt5ctypeIwE2idE = external global %"class.std::locale::id" ; [#uses=0 type=%"class.std::locale::id"*]
@_ZNSt10__num_base12_S_atoms_outE = external global i8* ; [#uses=0 type=i8**]
@_ZNSt10__num_base11_S_atoms_inE = external global i8* ; [#uses=0 type=i8**]
@_ZNSt8numpunct2idE = external global %"class.std::locale::id" ; [#uses=0 type=%"class.std::locale::id"*]
@_ZNSt7num_get2idE = external global %"class.std::locale::id" ; [#uses=0 type=%"class.std::locale::id"*]
@_ZNSt7num_put2idE = external global %"class.std::locale::id" ; [#uses=0 type=%"class.std::locale::id"*]
@_ZSt3cin = external global %"class.std::basic_istream" ; [#uses=0 type=%"class.std::basic_istream"*]
@_ZSt4cout = external global %"class.std::basic_ostream" ; [#uses=0 type=%"class.std::basic_ostream"*]
@_ZSt4cerr = external global %"class.std::basic_ostream" ; [#uses=0 type=%"class.std::basic_ostream"*]
@_ZSt4clog = external global %"class.std::basic_ostream" ; [#uses=0 type=%"class.std::basic_ostream"*]
@_ZSt4wcin = external global %"class.std::basic_istream.3" ; [#uses=0 type=%"class.std::basic_istream.3"*]
@_ZSt5wcout = external global %"class.std::basic_ostream.6" ; [#uses=0 type=%"class.std::basic_ostream.6"*]
@_ZSt5wcerr = external global %"class.std::basic_ostream.6" ; [#uses=0 type=%"class.std::basic_ostream.6"*]
@_ZSt5wclog = external global %"class.std::basic_ostream.6" ; [#uses=0 type=%"class.std::basic_ostream.6"*]
@_ZZN13ap_fixed_baseILi28ELi18ELb1EL9ap_q_mode5EL9ap_o_mode3ELi0EEC1EdE10AllOnesInt = linkonce_odr global i32 -1, align 4 ; [#uses=1 type=i32*]
@_ZL12X_RESOLUTION = internal constant i32 1920, align 4 ; [#uses=1 type=i32*]
@_ZL12Y_RESOLUTION = internal constant i32 1080, align 4 ; [#uses=1 type=i32*]
@_ZL16BITS_PER_CHANNEL = internal constant i32 8, align 4 ; [#uses=1 type=i32*]
@_ZL13ACCU_INT_BITS = internal constant i32 18, align 4 ; [#uses=1 type=i32*]
@_ZL14ACCU_FRAC_BITS = internal constant i32 10, align 4 ; [#uses=1 type=i32*]
@_ZL11KERNEL_SIZE = internal constant i32 3, align 4 ; [#uses=1 type=i32*]
@llvm.global_ctors = appending global [1 x { i32, void ()* }] [{ i32, void ()* } { i32 65535, void ()* @_GLOBAL__I_a }] ; [#uses=0 type=[1 x { i32, void ()* }]*]

; [#uses=1]
define internal void @__cxx_global_var_init() nounwind section ".text.startup" {
  call void @_ZNSt8ios_base4InitC1Ev(%"class.std::ios_base::Init"* @_ZStL8__ioinit)
  %1 = call i32 @atexit(void ()* @__dtor__ZStL8__ioinit) ; [#uses=0 type=i32]
  ret void
}

; [#uses=1]
declare void @_ZNSt8ios_base4InitC1Ev(%"class.std::ios_base::Init"*)

; [#uses=1]
declare void @_ZNSt8ios_base4InitD1Ev(%"class.std::ios_base::Init"*)

; [#uses=1]
define internal void @__dtor__ZStL8__ioinit() nounwind section ".text.startup" {
  call void @_ZNSt8ios_base4InitD1Ev(%"class.std::ios_base::Init"* @_ZStL8__ioinit)
  ret void
}

; [#uses=1]
declare i32 @atexit(void ()*) nounwind

; [#uses=1]
define internal void @__cxx_global_var_init1() nounwind section ".text.startup" {
  call void @_ZN8ap_fixedILi28ELi18EL9ap_q_mode5EL9ap_o_mode3ELi0EEC1Ei(%struct.ap_fixed* @_ZL11FILTER_BIAS, i32 127)
  ret void
}

; [#uses=7]
define linkonce_odr void @_ZN8ap_fixedILi28ELi18EL9ap_q_mode5EL9ap_o_mode3ELi0EEC1Ei(%struct.ap_fixed* %this, i32 %v) unnamed_addr nounwind uwtable inlinehint alwaysinline align 2 {
  %1 = alloca %struct.ap_fixed*, align 8          ; [#uses=2 type=%struct.ap_fixed**]
  %2 = alloca i32, align 4                        ; [#uses=2 type=i32*]
  store %struct.ap_fixed* %this, %struct.ap_fixed** %1, align 8
  call void @llvm.dbg.declare(metadata !{%struct.ap_fixed** %1}, metadata !9146), !dbg !9148 ; [debug line = 370:43] [debug variable = this]
  store i32 %v, i32* %2, align 4
  call void @llvm.dbg.declare(metadata !{i32* %2}, metadata !9149), !dbg !9150 ; [debug line = 370:56] [debug variable = v]
  %3 = load %struct.ap_fixed** %1                 ; [#uses=1 type=%struct.ap_fixed*]
  %4 = load i32* %2, align 4, !dbg !9151          ; [#uses=1 type=i32] [debug line = 370:68]
  call void @_ZN8ap_fixedILi28ELi18EL9ap_q_mode5EL9ap_o_mode3ELi0EEC2Ei(%struct.ap_fixed* %3, i32 %4), !dbg !9151 ; [debug line = 370:68]
  ret void, !dbg !9151                            ; [debug line = 370:68]
}

; [#uses=1]
define internal void @__cxx_global_var_init2() nounwind section ".text.startup" {
  call void @_ZN8ap_fixedILi28ELi18EL9ap_q_mode5EL9ap_o_mode3ELi0EEC1Ed(%struct.ap_fixed* getelementptr inbounds ([3 x [3 x %struct.ap_fixed]]* @_ZL11FILTER_COEF, i64 0, i64 0, i64 0), double 1.250000e-01)
  call void @_ZN8ap_fixedILi28ELi18EL9ap_q_mode5EL9ap_o_mode3ELi0EEC1Ed(%struct.ap_fixed* getelementptr inbounds ([3 x [3 x %struct.ap_fixed]]* @_ZL11FILTER_COEF, i64 0, i64 0, i64 1), double 2.500000e-01)
  call void @_ZN8ap_fixedILi28ELi18EL9ap_q_mode5EL9ap_o_mode3ELi0EEC1Ed(%struct.ap_fixed* getelementptr inbounds ([3 x [3 x %struct.ap_fixed]]* @_ZL11FILTER_COEF, i64 0, i64 0, i64 2), double 1.250000e-01)
  call void @_ZN8ap_fixedILi28ELi18EL9ap_q_mode5EL9ap_o_mode3ELi0EEC1Ed(%struct.ap_fixed* getelementptr inbounds ([3 x [3 x %struct.ap_fixed]]* @_ZL11FILTER_COEF, i64 0, i64 1, i64 0), double 2.500000e-01)
  call void @_ZN8ap_fixedILi28ELi18EL9ap_q_mode5EL9ap_o_mode3ELi0EEC1Ed(%struct.ap_fixed* getelementptr inbounds ([3 x [3 x %struct.ap_fixed]]* @_ZL11FILTER_COEF, i64 0, i64 1, i64 1), double -1.500000e+00)
  call void @_ZN8ap_fixedILi28ELi18EL9ap_q_mode5EL9ap_o_mode3ELi0EEC1Ed(%struct.ap_fixed* getelementptr inbounds ([3 x [3 x %struct.ap_fixed]]* @_ZL11FILTER_COEF, i64 0, i64 1, i64 2), double 2.500000e-01)
  call void @_ZN8ap_fixedILi28ELi18EL9ap_q_mode5EL9ap_o_mode3ELi0EEC1Ed(%struct.ap_fixed* getelementptr inbounds ([3 x [3 x %struct.ap_fixed]]* @_ZL11FILTER_COEF, i64 0, i64 2, i64 0), double 1.250000e-01)
  call void @_ZN8ap_fixedILi28ELi18EL9ap_q_mode5EL9ap_o_mode3ELi0EEC1Ed(%struct.ap_fixed* getelementptr inbounds ([3 x [3 x %struct.ap_fixed]]* @_ZL11FILTER_COEF, i64 0, i64 2, i64 1), double 2.500000e-01)
  call void @_ZN8ap_fixedILi28ELi18EL9ap_q_mode5EL9ap_o_mode3ELi0EEC1Ed(%struct.ap_fixed* getelementptr inbounds ([3 x [3 x %struct.ap_fixed]]* @_ZL11FILTER_COEF, i64 0, i64 2, i64 2), double 1.250000e-01)
  ret void
}

; [#uses=9]
define linkonce_odr void @_ZN8ap_fixedILi28ELi18EL9ap_q_mode5EL9ap_o_mode3ELi0EEC1Ed(%struct.ap_fixed* %this, double %v) unnamed_addr nounwind uwtable inlinehint alwaysinline align 2 {
  %1 = alloca %struct.ap_fixed*, align 8          ; [#uses=2 type=%struct.ap_fixed**]
  %2 = alloca double, align 8                     ; [#uses=2 type=double*]
  store %struct.ap_fixed* %this, %struct.ap_fixed** %1, align 8
  call void @llvm.dbg.declare(metadata !{%struct.ap_fixed** %1}, metadata !9152), !dbg !9153 ; [debug line = 378:43] [debug variable = this]
  store double %v, double* %2, align 8
  call void @llvm.dbg.declare(metadata !{double* %2}, metadata !9154), !dbg !9155 ; [debug line = 378:59] [debug variable = v]
  %3 = load %struct.ap_fixed** %1                 ; [#uses=1 type=%struct.ap_fixed*]
  %4 = load double* %2, align 8, !dbg !9156       ; [#uses=1 type=double] [debug line = 378:71]
  call void @_ZN8ap_fixedILi28ELi18EL9ap_q_mode5EL9ap_o_mode3ELi0EEC2Ed(%struct.ap_fixed* %3, double %4), !dbg !9156 ; [debug line = 378:71]
  ret void, !dbg !9156                            ; [debug line = 378:71]
}

; [#uses=1]
define void @_Z12pixel_kernelPA3_7pixel_t(%struct.pixel_t* noalias sret %agg.result, [3 x %struct.pixel_t]* %window) nounwind uwtable {
  %1 = alloca [3 x %struct.pixel_t]*, align 8     ; [#uses=5 type=[3 x %struct.pixel_t]**]
  %sum_r = alloca %struct.ap_fixed, align 4       ; [#uses=8 type=%struct.ap_fixed*]
  %sum_g = alloca %struct.ap_fixed, align 4       ; [#uses=8 type=%struct.ap_fixed*]
  %sum_b = alloca %struct.ap_fixed, align 4       ; [#uses=8 type=%struct.ap_fixed*]
  %i = alloca i32, align 4                        ; [#uses=10 type=i32*]
  %j = alloca i32, align 4                        ; [#uses=10 type=i32*]
  %2 = alloca %struct.ap_fixed_base.1, align 8    ; [#uses=2 type=%struct.ap_fixed_base.1*]
  %3 = alloca %struct.ap_fixed_base.1, align 8    ; [#uses=2 type=%struct.ap_fixed_base.1*]
  %4 = alloca %struct.ap_fixed_base.1, align 8    ; [#uses=2 type=%struct.ap_fixed_base.1*]
  %5 = alloca %struct.ap_fixed, align 4           ; [#uses=2 type=%struct.ap_fixed*]
  %6 = alloca %struct.ap_fixed, align 4           ; [#uses=2 type=%struct.ap_fixed*]
  %7 = alloca %struct.ap_fixed, align 4           ; [#uses=2 type=%struct.ap_fixed*]
  %8 = alloca %struct.ap_fixed, align 4           ; [#uses=2 type=%struct.ap_fixed*]
  %9 = alloca %struct.ap_fixed, align 4           ; [#uses=2 type=%struct.ap_fixed*]
  %10 = alloca %struct.ap_fixed, align 4          ; [#uses=2 type=%struct.ap_fixed*]
  %11 = alloca %struct.ap_uint, align 1           ; [#uses=2 type=%struct.ap_uint*]
  %12 = alloca %struct.ap_uint, align 1           ; [#uses=2 type=%struct.ap_uint*]
  %13 = alloca %struct.ap_uint, align 1           ; [#uses=2 type=%struct.ap_uint*]
  store [3 x %struct.pixel_t]* %window, [3 x %struct.pixel_t]** %1, align 8
  call void @llvm.dbg.declare(metadata !{[3 x %struct.pixel_t]** %1}, metadata !9157), !dbg !9158 ; [debug line = 6:30] [debug variable = window]
  %14 = load [3 x %struct.pixel_t]** %1, align 8, !dbg !9159 ; [#uses=1 type=[3 x %struct.pixel_t]*] [debug line = 6:65]
  call void (...)* @_ssdm_SpecArrayDimSize([3 x %struct.pixel_t]* %14, i32 3) nounwind, !dbg !9159 ; [debug line = 6:65]
  call void (...)* @_ssdm_InlineSelf(i32 0, i8* getelementptr inbounds ([1 x i8]* @.str, i32 0, i32 0)) nounwind, !dbg !9161 ; [debug line = 7:1]
  call void @llvm.dbg.declare(metadata !{%struct.pixel_t* %agg.result}, metadata !9162), !dbg !9164 ; [debug line = 10:13] [debug variable = result]
  call void @_ZN7pixel_tC1Ev(%struct.pixel_t* %agg.result), !dbg !9165 ; [debug line = 10:19]
  call void @llvm.dbg.declare(metadata !{%struct.ap_fixed* %sum_r}, metadata !9166), !dbg !9167 ; [debug line = 14:15] [debug variable = sum_r]
  %15 = bitcast %struct.ap_fixed* %sum_r to i8*, !dbg !9168 ; [#uses=0 type=i8*] [debug line = 14:34]
  %16 = getelementptr inbounds %struct.ap_fixed* %sum_r, i32 0, i32 0, !dbg !9168 ; [#uses=1 type=%struct.ap_fixed_base*] [debug line = 14:34]
  %17 = getelementptr inbounds %struct.ap_fixed_base* %16, i32 0, i32 0, !dbg !9168 ; [#uses=1 type=%struct.ssdm_int*] [debug line = 14:34]
  %18 = getelementptr inbounds %struct.ssdm_int* %17, i32 0, i32 0, !dbg !9168 ; [#uses=1 type=i28*] [debug line = 14:34]
  %19 = load i28* getelementptr inbounds (%struct.ap_fixed* @_ZL11FILTER_BIAS, i32 0, i32 0, i32 0, i32 0), !dbg !9168 ; [#uses=1 type=i28] [debug line = 14:34]
  store i28 %19, i28* %18, !dbg !9168             ; [debug line = 14:34]
  call void @llvm.dbg.declare(metadata !{%struct.ap_fixed* %sum_g}, metadata !9169), !dbg !9170 ; [debug line = 15:15] [debug variable = sum_g]
  %20 = bitcast %struct.ap_fixed* %sum_g to i8*, !dbg !9171 ; [#uses=0 type=i8*] [debug line = 15:34]
  %21 = getelementptr inbounds %struct.ap_fixed* %sum_g, i32 0, i32 0, !dbg !9171 ; [#uses=1 type=%struct.ap_fixed_base*] [debug line = 15:34]
  %22 = getelementptr inbounds %struct.ap_fixed_base* %21, i32 0, i32 0, !dbg !9171 ; [#uses=1 type=%struct.ssdm_int*] [debug line = 15:34]
  %23 = getelementptr inbounds %struct.ssdm_int* %22, i32 0, i32 0, !dbg !9171 ; [#uses=1 type=i28*] [debug line = 15:34]
  %24 = load i28* getelementptr inbounds (%struct.ap_fixed* @_ZL11FILTER_BIAS, i32 0, i32 0, i32 0, i32 0), !dbg !9171 ; [#uses=1 type=i28] [debug line = 15:34]
  store i28 %24, i28* %23, !dbg !9171             ; [debug line = 15:34]
  call void @llvm.dbg.declare(metadata !{%struct.ap_fixed* %sum_b}, metadata !9172), !dbg !9173 ; [debug line = 16:15] [debug variable = sum_b]
  %25 = bitcast %struct.ap_fixed* %sum_b to i8*, !dbg !9174 ; [#uses=0 type=i8*] [debug line = 16:34]
  %26 = getelementptr inbounds %struct.ap_fixed* %sum_b, i32 0, i32 0, !dbg !9174 ; [#uses=1 type=%struct.ap_fixed_base*] [debug line = 16:34]
  %27 = getelementptr inbounds %struct.ap_fixed_base* %26, i32 0, i32 0, !dbg !9174 ; [#uses=1 type=%struct.ssdm_int*] [debug line = 16:34]
  %28 = getelementptr inbounds %struct.ssdm_int* %27, i32 0, i32 0, !dbg !9174 ; [#uses=1 type=i28*] [debug line = 16:34]
  %29 = load i28* getelementptr inbounds (%struct.ap_fixed* @_ZL11FILTER_BIAS, i32 0, i32 0, i32 0, i32 0), !dbg !9174 ; [#uses=1 type=i28] [debug line = 16:34]
  store i28 %29, i28* %28, !dbg !9174             ; [debug line = 16:34]
  call void @llvm.dbg.declare(metadata !{i32* %i}, metadata !9175), !dbg !9177 ; [debug line = 17:14] [debug variable = i]
  store i32 0, i32* %i, align 4, !dbg !9178       ; [debug line = 17:19]
  br label %30, !dbg !9178                        ; [debug line = 17:19]

; <label>:30                                      ; preds = %96, %0
  %31 = load i32* %i, align 4, !dbg !9178         ; [#uses=1 type=i32] [debug line = 17:19]
  %32 = icmp slt i32 %31, 3, !dbg !9178           ; [#uses=1 type=i1] [debug line = 17:19]
  br i1 %32, label %33, label %99, !dbg !9178     ; [debug line = 17:19]

; <label>:33                                      ; preds = %30
  call void @llvm.dbg.declare(metadata !{i32* %j}, metadata !9179), !dbg !9182 ; [debug line = 18:12] [debug variable = j]
  store i32 0, i32* %j, align 4, !dbg !9183       ; [debug line = 18:17]
  br label %34, !dbg !9183                        ; [debug line = 18:17]

; <label>:34                                      ; preds = %92, %33
  %35 = load i32* %j, align 4, !dbg !9183         ; [#uses=1 type=i32] [debug line = 18:17]
  %36 = icmp slt i32 %35, 3, !dbg !9183           ; [#uses=1 type=i1] [debug line = 18:17]
  br i1 %36, label %37, label %95, !dbg !9183     ; [debug line = 18:17]

; <label>:37                                      ; preds = %34
  %38 = bitcast %struct.ap_fixed* %sum_r to %struct.ap_fixed_base*, !dbg !9184 ; [#uses=1 type=%struct.ap_fixed_base*] [debug line = 19:4]
  %39 = load i32* %j, align 4, !dbg !9186         ; [#uses=1 type=i32] [debug line = 19:13]
  %40 = sext i32 %39 to i64, !dbg !9186           ; [#uses=1 type=i64] [debug line = 19:13]
  %41 = load i32* %i, align 4, !dbg !9186         ; [#uses=1 type=i32] [debug line = 19:13]
  %42 = sext i32 %41 to i64, !dbg !9186           ; [#uses=1 type=i64] [debug line = 19:13]
  %43 = load [3 x %struct.pixel_t]** %1, align 8, !dbg !9186 ; [#uses=1 type=[3 x %struct.pixel_t]*] [debug line = 19:13]
  %44 = getelementptr inbounds [3 x %struct.pixel_t]* %43, i64 %42, !dbg !9186 ; [#uses=1 type=[3 x %struct.pixel_t]*] [debug line = 19:13]
  %45 = getelementptr inbounds [3 x %struct.pixel_t]* %44, i32 0, i64 %40, !dbg !9186 ; [#uses=1 type=%struct.pixel_t*] [debug line = 19:13]
  %46 = getelementptr inbounds %struct.pixel_t* %45, i32 0, i32 0, !dbg !9186 ; [#uses=1 type=%struct.ap_uint*] [debug line = 19:13]
  %47 = bitcast %struct.ap_uint* %46 to %struct.ap_int_base*, !dbg !9186 ; [#uses=1 type=%struct.ap_int_base*] [debug line = 19:13]
  %48 = load i32* %j, align 4, !dbg !9186         ; [#uses=1 type=i32] [debug line = 19:13]
  %49 = sext i32 %48 to i64, !dbg !9186           ; [#uses=1 type=i64] [debug line = 19:13]
  %50 = load i32* %i, align 4, !dbg !9186         ; [#uses=1 type=i32] [debug line = 19:13]
  %51 = sext i32 %50 to i64, !dbg !9186           ; [#uses=1 type=i64] [debug line = 19:13]
  %52 = getelementptr inbounds [3 x [3 x %struct.ap_fixed]]* @_ZL11FILTER_COEF, i32 0, i64 %51, !dbg !9186 ; [#uses=1 type=[3 x %struct.ap_fixed]*] [debug line = 19:13]
  %53 = getelementptr inbounds [3 x %struct.ap_fixed]* %52, i32 0, i64 %49, !dbg !9186 ; [#uses=1 type=%struct.ap_fixed*] [debug line = 19:13]
  %54 = bitcast %struct.ap_fixed* %53 to %struct.ap_fixed_base*, !dbg !9186 ; [#uses=1 type=%struct.ap_fixed_base*] [debug line = 19:13]
  call void @_ZmlILi28ELi18ELb1EL9ap_q_mode5EL9ap_o_mode3ELi0ELi8ELb0EEN13ap_fixed_baseIXT5_EXT5_EXT6_ELS0_5ELS1_3ELi0EE5RTypeIXT_EXT0_EXT1_EE4multERK11ap_int_baseIXT5_EXT6_EXleT5_Li64EEERKS2_IXT_EXT0_EXT1_EXT2_EXT3_EXT4_EE(%struct.ap_fixed_base.1* sret %2, %struct.ap_int_base* %47, %struct.ap_fixed_base* %54), !dbg !9186 ; [debug line = 19:13]
  %55 = call %struct.ap_fixed_base* @_ZN13ap_fixed_baseILi28ELi18ELb1EL9ap_q_mode5EL9ap_o_mode3ELi0EEpLILi36ELi26ELb1ELS0_5ELS1_3ELi0EEERS2_RKS_IXT_EXT0_EXT1_EXT2_EXT3_EXT4_EE(%struct.ap_fixed_base* %38, %struct.ap_fixed_base.1* %2), !dbg !9186 ; [#uses=0 type=%struct.ap_fixed_base*] [debug line = 19:13]
  %56 = bitcast %struct.ap_fixed* %sum_g to %struct.ap_fixed_base*, !dbg !9187 ; [#uses=1 type=%struct.ap_fixed_base*] [debug line = 20:4]
  %57 = load i32* %j, align 4, !dbg !9188         ; [#uses=1 type=i32] [debug line = 20:13]
  %58 = sext i32 %57 to i64, !dbg !9188           ; [#uses=1 type=i64] [debug line = 20:13]
  %59 = load i32* %i, align 4, !dbg !9188         ; [#uses=1 type=i32] [debug line = 20:13]
  %60 = sext i32 %59 to i64, !dbg !9188           ; [#uses=1 type=i64] [debug line = 20:13]
  %61 = load [3 x %struct.pixel_t]** %1, align 8, !dbg !9188 ; [#uses=1 type=[3 x %struct.pixel_t]*] [debug line = 20:13]
  %62 = getelementptr inbounds [3 x %struct.pixel_t]* %61, i64 %60, !dbg !9188 ; [#uses=1 type=[3 x %struct.pixel_t]*] [debug line = 20:13]
  %63 = getelementptr inbounds [3 x %struct.pixel_t]* %62, i32 0, i64 %58, !dbg !9188 ; [#uses=1 type=%struct.pixel_t*] [debug line = 20:13]
  %64 = getelementptr inbounds %struct.pixel_t* %63, i32 0, i32 1, !dbg !9188 ; [#uses=1 type=%struct.ap_uint*] [debug line = 20:13]
  %65 = bitcast %struct.ap_uint* %64 to %struct.ap_int_base*, !dbg !9188 ; [#uses=1 type=%struct.ap_int_base*] [debug line = 20:13]
  %66 = load i32* %j, align 4, !dbg !9188         ; [#uses=1 type=i32] [debug line = 20:13]
  %67 = sext i32 %66 to i64, !dbg !9188           ; [#uses=1 type=i64] [debug line = 20:13]
  %68 = load i32* %i, align 4, !dbg !9188         ; [#uses=1 type=i32] [debug line = 20:13]
  %69 = sext i32 %68 to i64, !dbg !9188           ; [#uses=1 type=i64] [debug line = 20:13]
  %70 = getelementptr inbounds [3 x [3 x %struct.ap_fixed]]* @_ZL11FILTER_COEF, i32 0, i64 %69, !dbg !9188 ; [#uses=1 type=[3 x %struct.ap_fixed]*] [debug line = 20:13]
  %71 = getelementptr inbounds [3 x %struct.ap_fixed]* %70, i32 0, i64 %67, !dbg !9188 ; [#uses=1 type=%struct.ap_fixed*] [debug line = 20:13]
  %72 = bitcast %struct.ap_fixed* %71 to %struct.ap_fixed_base*, !dbg !9188 ; [#uses=1 type=%struct.ap_fixed_base*] [debug line = 20:13]
  call void @_ZmlILi28ELi18ELb1EL9ap_q_mode5EL9ap_o_mode3ELi0ELi8ELb0EEN13ap_fixed_baseIXT5_EXT5_EXT6_ELS0_5ELS1_3ELi0EE5RTypeIXT_EXT0_EXT1_EE4multERK11ap_int_baseIXT5_EXT6_EXleT5_Li64EEERKS2_IXT_EXT0_EXT1_EXT2_EXT3_EXT4_EE(%struct.ap_fixed_base.1* sret %3, %struct.ap_int_base* %65, %struct.ap_fixed_base* %72), !dbg !9188 ; [debug line = 20:13]
  %73 = call %struct.ap_fixed_base* @_ZN13ap_fixed_baseILi28ELi18ELb1EL9ap_q_mode5EL9ap_o_mode3ELi0EEpLILi36ELi26ELb1ELS0_5ELS1_3ELi0EEERS2_RKS_IXT_EXT0_EXT1_EXT2_EXT3_EXT4_EE(%struct.ap_fixed_base* %56, %struct.ap_fixed_base.1* %3), !dbg !9188 ; [#uses=0 type=%struct.ap_fixed_base*] [debug line = 20:13]
  %74 = bitcast %struct.ap_fixed* %sum_b to %struct.ap_fixed_base*, !dbg !9189 ; [#uses=1 type=%struct.ap_fixed_base*] [debug line = 21:4]
  %75 = load i32* %j, align 4, !dbg !9190         ; [#uses=1 type=i32] [debug line = 21:13]
  %76 = sext i32 %75 to i64, !dbg !9190           ; [#uses=1 type=i64] [debug line = 21:13]
  %77 = load i32* %i, align 4, !dbg !9190         ; [#uses=1 type=i32] [debug line = 21:13]
  %78 = sext i32 %77 to i64, !dbg !9190           ; [#uses=1 type=i64] [debug line = 21:13]
  %79 = load [3 x %struct.pixel_t]** %1, align 8, !dbg !9190 ; [#uses=1 type=[3 x %struct.pixel_t]*] [debug line = 21:13]
  %80 = getelementptr inbounds [3 x %struct.pixel_t]* %79, i64 %78, !dbg !9190 ; [#uses=1 type=[3 x %struct.pixel_t]*] [debug line = 21:13]
  %81 = getelementptr inbounds [3 x %struct.pixel_t]* %80, i32 0, i64 %76, !dbg !9190 ; [#uses=1 type=%struct.pixel_t*] [debug line = 21:13]
  %82 = getelementptr inbounds %struct.pixel_t* %81, i32 0, i32 2, !dbg !9190 ; [#uses=1 type=%struct.ap_uint*] [debug line = 21:13]
  %83 = bitcast %struct.ap_uint* %82 to %struct.ap_int_base*, !dbg !9190 ; [#uses=1 type=%struct.ap_int_base*] [debug line = 21:13]
  %84 = load i32* %j, align 4, !dbg !9190         ; [#uses=1 type=i32] [debug line = 21:13]
  %85 = sext i32 %84 to i64, !dbg !9190           ; [#uses=1 type=i64] [debug line = 21:13]
  %86 = load i32* %i, align 4, !dbg !9190         ; [#uses=1 type=i32] [debug line = 21:13]
  %87 = sext i32 %86 to i64, !dbg !9190           ; [#uses=1 type=i64] [debug line = 21:13]
  %88 = getelementptr inbounds [3 x [3 x %struct.ap_fixed]]* @_ZL11FILTER_COEF, i32 0, i64 %87, !dbg !9190 ; [#uses=1 type=[3 x %struct.ap_fixed]*] [debug line = 21:13]
  %89 = getelementptr inbounds [3 x %struct.ap_fixed]* %88, i32 0, i64 %85, !dbg !9190 ; [#uses=1 type=%struct.ap_fixed*] [debug line = 21:13]
  %90 = bitcast %struct.ap_fixed* %89 to %struct.ap_fixed_base*, !dbg !9190 ; [#uses=1 type=%struct.ap_fixed_base*] [debug line = 21:13]
  call void @_ZmlILi28ELi18ELb1EL9ap_q_mode5EL9ap_o_mode3ELi0ELi8ELb0EEN13ap_fixed_baseIXT5_EXT5_EXT6_ELS0_5ELS1_3ELi0EE5RTypeIXT_EXT0_EXT1_EE4multERK11ap_int_baseIXT5_EXT6_EXleT5_Li64EEERKS2_IXT_EXT0_EXT1_EXT2_EXT3_EXT4_EE(%struct.ap_fixed_base.1* sret %4, %struct.ap_int_base* %83, %struct.ap_fixed_base* %90), !dbg !9190 ; [debug line = 21:13]
  %91 = call %struct.ap_fixed_base* @_ZN13ap_fixed_baseILi28ELi18ELb1EL9ap_q_mode5EL9ap_o_mode3ELi0EEpLILi36ELi26ELb1ELS0_5ELS1_3ELi0EEERS2_RKS_IXT_EXT0_EXT1_EXT2_EXT3_EXT4_EE(%struct.ap_fixed_base* %74, %struct.ap_fixed_base.1* %4), !dbg !9190 ; [#uses=0 type=%struct.ap_fixed_base*] [debug line = 21:13]
  br label %92, !dbg !9191                        ; [debug line = 22:3]

; <label>:92                                      ; preds = %37
  %93 = load i32* %j, align 4, !dbg !9192         ; [#uses=1 type=i32] [debug line = 18:36]
  %94 = add nsw i32 %93, 1, !dbg !9192            ; [#uses=1 type=i32] [debug line = 18:36]
  store i32 %94, i32* %j, align 4, !dbg !9192     ; [debug line = 18:36]
  br label %34, !dbg !9192                        ; [debug line = 18:36]

; <label>:95                                      ; preds = %34
  br label %96, !dbg !9193                        ; [debug line = 23:2]

; <label>:96                                      ; preds = %95
  %97 = load i32* %i, align 4, !dbg !9194         ; [#uses=1 type=i32] [debug line = 17:38]
  %98 = add nsw i32 %97, 1, !dbg !9194            ; [#uses=1 type=i32] [debug line = 17:38]
  store i32 %98, i32* %i, align 4, !dbg !9194     ; [debug line = 17:38]
  br label %30, !dbg !9194                        ; [debug line = 17:38]

; <label>:99                                      ; preds = %30
  %100 = bitcast %struct.ap_fixed* %sum_r to %struct.ap_fixed_base*, !dbg !9195 ; [#uses=1 type=%struct.ap_fixed_base*] [debug line = 24:9]
  %101 = call zeroext i1 @_ZltILi28ELi18ELb1EL9ap_q_mode5EL9ap_o_mode3ELi0EEbRK13ap_fixed_baseIXT_EXT0_EXT1_EXT2_EXT3_EXT4_EEi(%struct.ap_fixed_base* %100, i32 0), !dbg !9195 ; [#uses=1 type=i1] [debug line = 24:9]
  br i1 %101, label %102, label %104, !dbg !9195  ; [debug line = 24:9]

; <label>:102                                     ; preds = %99
  call void @_ZN8ap_fixedILi28ELi18EL9ap_q_mode5EL9ap_o_mode3ELi0EEC1Ei(%struct.ap_fixed* %5, i32 0), !dbg !9196 ; [debug line = 25:6]
  %103 = call %struct.ap_fixed* @_ZN8ap_fixedILi28ELi18EL9ap_q_mode5EL9ap_o_mode3ELi0EEaSERKS2_(%struct.ap_fixed* %sum_r, %struct.ap_fixed* %5), !dbg !9196 ; [#uses=0 type=%struct.ap_fixed*] [debug line = 25:6]
  br label %110, !dbg !9196                       ; [debug line = 25:6]

; <label>:104                                     ; preds = %99
  %105 = bitcast %struct.ap_fixed* %sum_r to %struct.ap_fixed_base*, !dbg !9197 ; [#uses=1 type=%struct.ap_fixed_base*] [debug line = 26:14]
  %106 = call zeroext i1 @_ZgtILi28ELi18ELb1EL9ap_q_mode5EL9ap_o_mode3ELi0EEbRK13ap_fixed_baseIXT_EXT0_EXT1_EXT2_EXT3_EXT4_EEi(%struct.ap_fixed_base* %105, i32 255), !dbg !9197 ; [#uses=1 type=i1] [debug line = 26:14]
  br i1 %106, label %107, label %109, !dbg !9197  ; [debug line = 26:14]

; <label>:107                                     ; preds = %104
  call void @_ZN8ap_fixedILi28ELi18EL9ap_q_mode5EL9ap_o_mode3ELi0EEC1Ei(%struct.ap_fixed* %6, i32 255), !dbg !9198 ; [debug line = 27:6]
  %108 = call %struct.ap_fixed* @_ZN8ap_fixedILi28ELi18EL9ap_q_mode5EL9ap_o_mode3ELi0EEaSERKS2_(%struct.ap_fixed* %sum_r, %struct.ap_fixed* %6), !dbg !9198 ; [#uses=0 type=%struct.ap_fixed*] [debug line = 27:6]
  br label %109, !dbg !9198                       ; [debug line = 27:6]

; <label>:109                                     ; preds = %107, %104
  br label %110

; <label>:110                                     ; preds = %109, %102
  %111 = bitcast %struct.ap_fixed* %sum_g to %struct.ap_fixed_base*, !dbg !9199 ; [#uses=1 type=%struct.ap_fixed_base*] [debug line = 28:9]
  %112 = call zeroext i1 @_ZltILi28ELi18ELb1EL9ap_q_mode5EL9ap_o_mode3ELi0EEbRK13ap_fixed_baseIXT_EXT0_EXT1_EXT2_EXT3_EXT4_EEi(%struct.ap_fixed_base* %111, i32 0), !dbg !9199 ; [#uses=1 type=i1] [debug line = 28:9]
  br i1 %112, label %113, label %115, !dbg !9199  ; [debug line = 28:9]

; <label>:113                                     ; preds = %110
  call void @_ZN8ap_fixedILi28ELi18EL9ap_q_mode5EL9ap_o_mode3ELi0EEC1Ei(%struct.ap_fixed* %7, i32 0), !dbg !9200 ; [debug line = 29:6]
  %114 = call %struct.ap_fixed* @_ZN8ap_fixedILi28ELi18EL9ap_q_mode5EL9ap_o_mode3ELi0EEaSERKS2_(%struct.ap_fixed* %sum_g, %struct.ap_fixed* %7), !dbg !9200 ; [#uses=0 type=%struct.ap_fixed*] [debug line = 29:6]
  br label %121, !dbg !9200                       ; [debug line = 29:6]

; <label>:115                                     ; preds = %110
  %116 = bitcast %struct.ap_fixed* %sum_g to %struct.ap_fixed_base*, !dbg !9201 ; [#uses=1 type=%struct.ap_fixed_base*] [debug line = 30:14]
  %117 = call zeroext i1 @_ZgtILi28ELi18ELb1EL9ap_q_mode5EL9ap_o_mode3ELi0EEbRK13ap_fixed_baseIXT_EXT0_EXT1_EXT2_EXT3_EXT4_EEi(%struct.ap_fixed_base* %116, i32 255), !dbg !9201 ; [#uses=1 type=i1] [debug line = 30:14]
  br i1 %117, label %118, label %120, !dbg !9201  ; [debug line = 30:14]

; <label>:118                                     ; preds = %115
  call void @_ZN8ap_fixedILi28ELi18EL9ap_q_mode5EL9ap_o_mode3ELi0EEC1Ei(%struct.ap_fixed* %8, i32 255), !dbg !9202 ; [debug line = 31:6]
  %119 = call %struct.ap_fixed* @_ZN8ap_fixedILi28ELi18EL9ap_q_mode5EL9ap_o_mode3ELi0EEaSERKS2_(%struct.ap_fixed* %sum_g, %struct.ap_fixed* %8), !dbg !9202 ; [#uses=0 type=%struct.ap_fixed*] [debug line = 31:6]
  br label %120, !dbg !9202                       ; [debug line = 31:6]

; <label>:120                                     ; preds = %118, %115
  br label %121

; <label>:121                                     ; preds = %120, %113
  %122 = bitcast %struct.ap_fixed* %sum_b to %struct.ap_fixed_base*, !dbg !9203 ; [#uses=1 type=%struct.ap_fixed_base*] [debug line = 32:9]
  %123 = call zeroext i1 @_ZltILi28ELi18ELb1EL9ap_q_mode5EL9ap_o_mode3ELi0EEbRK13ap_fixed_baseIXT_EXT0_EXT1_EXT2_EXT3_EXT4_EEi(%struct.ap_fixed_base* %122, i32 0), !dbg !9203 ; [#uses=1 type=i1] [debug line = 32:9]
  br i1 %123, label %124, label %126, !dbg !9203  ; [debug line = 32:9]

; <label>:124                                     ; preds = %121
  call void @_ZN8ap_fixedILi28ELi18EL9ap_q_mode5EL9ap_o_mode3ELi0EEC1Ei(%struct.ap_fixed* %9, i32 0), !dbg !9204 ; [debug line = 33:6]
  %125 = call %struct.ap_fixed* @_ZN8ap_fixedILi28ELi18EL9ap_q_mode5EL9ap_o_mode3ELi0EEaSERKS2_(%struct.ap_fixed* %sum_b, %struct.ap_fixed* %9), !dbg !9204 ; [#uses=0 type=%struct.ap_fixed*] [debug line = 33:6]
  br label %132, !dbg !9204                       ; [debug line = 33:6]

; <label>:126                                     ; preds = %121
  %127 = bitcast %struct.ap_fixed* %sum_b to %struct.ap_fixed_base*, !dbg !9205 ; [#uses=1 type=%struct.ap_fixed_base*] [debug line = 34:14]
  %128 = call zeroext i1 @_ZgtILi28ELi18ELb1EL9ap_q_mode5EL9ap_o_mode3ELi0EEbRK13ap_fixed_baseIXT_EXT0_EXT1_EXT2_EXT3_EXT4_EEi(%struct.ap_fixed_base* %127, i32 255), !dbg !9205 ; [#uses=1 type=i1] [debug line = 34:14]
  br i1 %128, label %129, label %131, !dbg !9205  ; [debug line = 34:14]

; <label>:129                                     ; preds = %126
  call void @_ZN8ap_fixedILi28ELi18EL9ap_q_mode5EL9ap_o_mode3ELi0EEC1Ei(%struct.ap_fixed* %10, i32 255), !dbg !9206 ; [debug line = 35:6]
  %130 = call %struct.ap_fixed* @_ZN8ap_fixedILi28ELi18EL9ap_q_mode5EL9ap_o_mode3ELi0EEaSERKS2_(%struct.ap_fixed* %sum_b, %struct.ap_fixed* %10), !dbg !9206 ; [#uses=0 type=%struct.ap_fixed*] [debug line = 35:6]
  br label %131, !dbg !9206                       ; [debug line = 35:6]

; <label>:131                                     ; preds = %129, %126
  br label %132

; <label>:132                                     ; preds = %131, %124
  %133 = getelementptr inbounds %struct.pixel_t* %agg.result, i32 0, i32 0, !dbg !9207 ; [#uses=1 type=%struct.ap_uint*] [debug line = 36:5]
  call void @_ZN7ap_uintILi8EEC1ILi28ELi18EL9ap_q_mode5EL9ap_o_mode3ELi0EEERK8ap_fixedIXT_EXT0_EXT1_EXT2_EXT3_EE(%struct.ap_uint* %11, %struct.ap_fixed* %sum_r), !dbg !9207 ; [debug line = 36:5]
  %134 = call %struct.ap_uint* @_ZN7ap_uintILi8EEaSERKS0_(%struct.ap_uint* %133, %struct.ap_uint* %11), !dbg !9207 ; [#uses=0 type=%struct.ap_uint*] [debug line = 36:5]
  %135 = getelementptr inbounds %struct.pixel_t* %agg.result, i32 0, i32 1, !dbg !9208 ; [#uses=1 type=%struct.ap_uint*] [debug line = 37:5]
  call void @_ZN7ap_uintILi8EEC1ILi28ELi18EL9ap_q_mode5EL9ap_o_mode3ELi0EEERK8ap_fixedIXT_EXT0_EXT1_EXT2_EXT3_EE(%struct.ap_uint* %12, %struct.ap_fixed* %sum_g), !dbg !9208 ; [debug line = 37:5]
  %136 = call %struct.ap_uint* @_ZN7ap_uintILi8EEaSERKS0_(%struct.ap_uint* %135, %struct.ap_uint* %12), !dbg !9208 ; [#uses=0 type=%struct.ap_uint*] [debug line = 37:5]
  %137 = getelementptr inbounds %struct.pixel_t* %agg.result, i32 0, i32 2, !dbg !9209 ; [#uses=1 type=%struct.ap_uint*] [debug line = 38:5]
  call void @_ZN7ap_uintILi8EEC1ILi28ELi18EL9ap_q_mode5EL9ap_o_mode3ELi0EEERK8ap_fixedIXT_EXT0_EXT1_EXT2_EXT3_EE(%struct.ap_uint* %13, %struct.ap_fixed* %sum_b), !dbg !9209 ; [debug line = 38:5]
  %138 = call %struct.ap_uint* @_ZN7ap_uintILi8EEaSERKS0_(%struct.ap_uint* %137, %struct.ap_uint* %13), !dbg !9209 ; [#uses=0 type=%struct.ap_uint*] [debug line = 38:5]
  ret void, !dbg !9210                            ; [debug line = 39:5]
}

; [#uses=258]
declare void @llvm.dbg.declare(metadata, metadata) nounwind readnone

; [#uses=1]
declare void @_ssdm_SpecArrayDimSize(...) nounwind

; [#uses=7]
declare void @_ssdm_InlineSelf(...) nounwind

; [#uses=3]
define linkonce_odr void @_ZN7pixel_tC1Ev(%struct.pixel_t* %this) unnamed_addr nounwind uwtable inlinehint align 2 {
  %1 = alloca %struct.pixel_t*, align 8           ; [#uses=2 type=%struct.pixel_t**]
  store %struct.pixel_t* %this, %struct.pixel_t** %1, align 8
  call void @llvm.dbg.declare(metadata !{%struct.pixel_t** %1}, metadata !9211), !dbg !9213 ; [debug line = 21:9] [debug variable = this]
  %2 = load %struct.pixel_t** %1                  ; [#uses=1 type=%struct.pixel_t*]
  call void @_ZN7pixel_tC2Ev(%struct.pixel_t* %2), !dbg !9213 ; [debug line = 21:9]
  ret void, !dbg !9213                            ; [debug line = 21:9]
}

; [#uses=3]
define linkonce_odr %struct.ap_fixed_base* @_ZN13ap_fixed_baseILi28ELi18ELb1EL9ap_q_mode5EL9ap_o_mode3ELi0EEpLILi36ELi26ELb1ELS0_5ELS1_3ELi0EEERS2_RKS_IXT_EXT0_EXT1_EXT2_EXT3_EXT4_EE(%struct.ap_fixed_base* %this, %struct.ap_fixed_base.1* %op2) nounwind uwtable inlinehint alwaysinline align 2 {
  %1 = alloca %struct.ap_fixed_base*, align 8     ; [#uses=2 type=%struct.ap_fixed_base**]
  %2 = alloca %struct.ap_fixed_base.1*, align 8   ; [#uses=2 type=%struct.ap_fixed_base.1**]
  %3 = alloca %struct.ap_fixed_base, align 4      ; [#uses=2 type=%struct.ap_fixed_base*]
  %4 = alloca %struct.ap_fixed_base.18, align 8   ; [#uses=2 type=%struct.ap_fixed_base.18*]
  store %struct.ap_fixed_base* %this, %struct.ap_fixed_base** %1, align 8
  call void @llvm.dbg.declare(metadata !{%struct.ap_fixed_base** %1}, metadata !9214), !dbg !9216 ; [debug line = 1424:149] [debug variable = this]
  store %struct.ap_fixed_base.1* %op2, %struct.ap_fixed_base.1** %2, align 8
  call void @llvm.dbg.declare(metadata !{%struct.ap_fixed_base.1** %2}, metadata !9217), !dbg !9218 ; [debug line = 1424:226] [debug variable = op2]
  %5 = load %struct.ap_fixed_base** %1            ; [#uses=3 type=%struct.ap_fixed_base*]
  %6 = load %struct.ap_fixed_base.1** %2, align 8, !dbg !9219 ; [#uses=1 type=%struct.ap_fixed_base.1*] [debug line = 1424:243]
  call void @_ZNK13ap_fixed_baseILi28ELi18ELb1EL9ap_q_mode5EL9ap_o_mode3ELi0EEplILi36ELi26ELb1ELS0_5ELS1_3ELi0EEENS2_5RTypeIXT_EXT0_EXT1_EE4plusERKS_IXT_EXT0_EXT1_EXT2_EXT3_EXT4_EE(%struct.ap_fixed_base.18* sret %4, %struct.ap_fixed_base* %5, %struct.ap_fixed_base.1* %6), !dbg !9219 ; [debug line = 1424:243]
  call void @_ZN13ap_fixed_baseILi28ELi18ELb1EL9ap_q_mode5EL9ap_o_mode3ELi0EEC1ILi37ELi27ELb1ELS0_5ELS1_3ELi0EEERKS_IXT_EXT0_EXT1_EXT2_EXT3_EXT4_EE(%struct.ap_fixed_base* %3, %struct.ap_fixed_base.18* %4), !dbg !9219 ; [debug line = 1424:243]
  %7 = call %struct.ap_fixed_base* @_ZN13ap_fixed_baseILi28ELi18ELb1EL9ap_q_mode5EL9ap_o_mode3ELi0EEaSERKS2_(%struct.ap_fixed_base* %5, %struct.ap_fixed_base* %3), !dbg !9219 ; [#uses=0 type=%struct.ap_fixed_base*] [debug line = 1424:243]
  ret %struct.ap_fixed_base* %5, !dbg !9221       ; [debug line = 1424:0]
}

; [#uses=3]
define linkonce_odr void @_ZmlILi28ELi18ELb1EL9ap_q_mode5EL9ap_o_mode3ELi0ELi8ELb0EEN13ap_fixed_baseIXT5_EXT5_EXT6_ELS0_5ELS1_3ELi0EE5RTypeIXT_EXT0_EXT1_EE4multERK11ap_int_baseIXT5_EXT6_EXleT5_Li64EEERKS2_IXT_EXT0_EXT1_EXT2_EXT3_EXT4_EE(%struct.ap_fixed_base.1* noalias sret %agg.result, %struct.ap_int_base* %i_op, %struct.ap_fixed_base* %op) nounwind uwtable inlinehint alwaysinline {
  %1 = alloca %struct.ap_int_base*, align 8       ; [#uses=2 type=%struct.ap_int_base**]
  %2 = alloca %struct.ap_fixed_base*, align 8     ; [#uses=2 type=%struct.ap_fixed_base**]
  %3 = alloca %struct.ap_int_base, align 1        ; [#uses=2 type=%struct.ap_int_base*]
  store %struct.ap_int_base* %i_op, %struct.ap_int_base** %1, align 8
  call void @llvm.dbg.declare(metadata !{%struct.ap_int_base** %1}, metadata !9222), !dbg !9223 ; [debug line = 2402:0] [debug variable = i_op]
  store %struct.ap_fixed_base* %op, %struct.ap_fixed_base** %2, align 8
  call void @llvm.dbg.declare(metadata !{%struct.ap_fixed_base** %2}, metadata !9224), !dbg !9223 ; [debug line = 2402:0] [debug variable = op]
  %4 = load %struct.ap_int_base** %1, align 8, !dbg !9225 ; [#uses=1 type=%struct.ap_int_base*] [debug line = 2402:0]
  call void @_ZN13ap_fixed_baseILi8ELi8ELb0EL9ap_q_mode5EL9ap_o_mode3ELi0EEC1ILi8ELb0EEERK11ap_int_baseIXT_EXT0_EXleT_Li64EEE(%struct.ap_int_base* %3, %struct.ap_int_base* %4), !dbg !9225 ; [debug line = 2402:0]
  %5 = load %struct.ap_fixed_base** %2, align 8, !dbg !9225 ; [#uses=1 type=%struct.ap_fixed_base*] [debug line = 2402:0]
  call void @_ZNK13ap_fixed_baseILi8ELi8ELb0EL9ap_q_mode5EL9ap_o_mode3ELi0EEmlILi28ELi18ELb1ELS0_5ELS1_3ELi0EEENS2_5RTypeIXT_EXT0_EXT1_EE4multERKS_IXT_EXT0_EXT1_EXT2_EXT3_EXT4_EE(%struct.ap_fixed_base.1* sret %agg.result, %struct.ap_int_base* %3, %struct.ap_fixed_base* %5), !dbg !9225 ; [debug line = 2402:0]
  ret void, !dbg !9225                            ; [debug line = 2402:0]
}

; [#uses=3]
define linkonce_odr zeroext i1 @_ZltILi28ELi18ELb1EL9ap_q_mode5EL9ap_o_mode3ELi0EEbRK13ap_fixed_baseIXT_EXT0_EXT1_EXT2_EXT3_EXT4_EEi(%struct.ap_fixed_base* %op, i32 %i_op) nounwind uwtable inlinehint alwaysinline {
  %1 = alloca %struct.ap_fixed_base*, align 8     ; [#uses=2 type=%struct.ap_fixed_base**]
  %2 = alloca i32, align 4                        ; [#uses=2 type=i32*]
  %3 = alloca %struct.ap_fixed_base.14, align 4   ; [#uses=2 type=%struct.ap_fixed_base.14*]
  store %struct.ap_fixed_base* %op, %struct.ap_fixed_base** %1, align 8
  call void @llvm.dbg.declare(metadata !{%struct.ap_fixed_base** %1}, metadata !9227), !dbg !9228 ; [debug line = 2356:0] [debug variable = op]
  store i32 %i_op, i32* %2, align 4
  call void @llvm.dbg.declare(metadata !{i32* %2}, metadata !9229), !dbg !9228 ; [debug line = 2356:0] [debug variable = i_op]
  %4 = load %struct.ap_fixed_base** %1, align 8, !dbg !9230 ; [#uses=1 type=%struct.ap_fixed_base*] [debug line = 2356:0]
  %5 = load i32* %2, align 4, !dbg !9230          ; [#uses=1 type=i32] [debug line = 2356:0]
  call void @_ZN13ap_fixed_baseILi32ELi32ELb1EL9ap_q_mode5EL9ap_o_mode3ELi0EEC1Ei(%struct.ap_fixed_base.14* %3, i32 %5), !dbg !9230 ; [debug line = 2356:0]
  %6 = call zeroext i1 @_ZNK13ap_fixed_baseILi28ELi18ELb1EL9ap_q_mode5EL9ap_o_mode3ELi0EEltILi32ELi32ELb1ELS0_5ELS1_3ELi0EEEbRKS_IXT_EXT0_EXT1_EXT2_EXT3_EXT4_EE(%struct.ap_fixed_base* %4, %struct.ap_fixed_base.14* %3), !dbg !9230 ; [#uses=1 type=i1] [debug line = 2356:0]
  ret i1 %6, !dbg !9230                           ; [debug line = 2356:0]
}

; [#uses=6]
define linkonce_odr %struct.ap_fixed* @_ZN8ap_fixedILi28ELi18EL9ap_q_mode5EL9ap_o_mode3ELi0EEaSERKS2_(%struct.ap_fixed* %this, %struct.ap_fixed* %op) nounwind uwtable inlinehint alwaysinline align 2 {
  %1 = alloca %struct.ap_fixed*, align 8          ; [#uses=2 type=%struct.ap_fixed**]
  %2 = alloca %struct.ap_fixed*, align 8          ; [#uses=2 type=%struct.ap_fixed**]
  store %struct.ap_fixed* %this, %struct.ap_fixed** %1, align 8
  call void @llvm.dbg.declare(metadata !{%struct.ap_fixed** %1}, metadata !9232), !dbg !9233 ; [debug line = 384:53] [debug variable = this]
  store %struct.ap_fixed* %op, %struct.ap_fixed** %2, align 8
  call void @llvm.dbg.declare(metadata !{%struct.ap_fixed** %2}, metadata !9234), !dbg !9235 ; [debug line = 385:49] [debug variable = op]
  %3 = load %struct.ap_fixed** %1                 ; [#uses=2 type=%struct.ap_fixed*]
  %4 = load %struct.ap_fixed** %2, align 8, !dbg !9236 ; [#uses=1 type=%struct.ap_fixed*] [debug line = 386:9]
  %5 = bitcast %struct.ap_fixed* %4 to %struct.ssdm_int*, !dbg !9236 ; [#uses=1 type=%struct.ssdm_int*] [debug line = 386:9]
  %6 = getelementptr inbounds %struct.ssdm_int* %5, i32 0, i32 0, !dbg !9236 ; [#uses=1 type=i28*] [debug line = 386:9]
  %7 = load i28* %6, align 4, !dbg !9236          ; [#uses=1 type=i28] [debug line = 386:9]
  %8 = bitcast %struct.ap_fixed* %3 to %struct.ap_fixed_base*, !dbg !9236 ; [#uses=1 type=%struct.ap_fixed_base*] [debug line = 386:9]
  %9 = bitcast %struct.ap_fixed_base* %8 to %struct.ssdm_int*, !dbg !9236 ; [#uses=1 type=%struct.ssdm_int*] [debug line = 386:9]
  %10 = getelementptr inbounds %struct.ssdm_int* %9, i32 0, i32 0, !dbg !9236 ; [#uses=1 type=i28*] [debug line = 386:9]
  store i28 %7, i28* %10, align 4, !dbg !9236     ; [debug line = 386:9]
  ret %struct.ap_fixed* %3, !dbg !9238            ; [debug line = 387:9]
}

; [#uses=3]
define linkonce_odr zeroext i1 @_ZgtILi28ELi18ELb1EL9ap_q_mode5EL9ap_o_mode3ELi0EEbRK13ap_fixed_baseIXT_EXT0_EXT1_EXT2_EXT3_EXT4_EEi(%struct.ap_fixed_base* %op, i32 %i_op) nounwind uwtable inlinehint alwaysinline {
  %1 = alloca %struct.ap_fixed_base*, align 8     ; [#uses=2 type=%struct.ap_fixed_base**]
  %2 = alloca i32, align 4                        ; [#uses=2 type=i32*]
  %3 = alloca %struct.ap_fixed_base.14, align 4   ; [#uses=2 type=%struct.ap_fixed_base.14*]
  store %struct.ap_fixed_base* %op, %struct.ap_fixed_base** %1, align 8
  call void @llvm.dbg.declare(metadata !{%struct.ap_fixed_base** %1}, metadata !9239), !dbg !9240 ; [debug line = 2356:0] [debug variable = op]
  store i32 %i_op, i32* %2, align 4
  call void @llvm.dbg.declare(metadata !{i32* %2}, metadata !9241), !dbg !9240 ; [debug line = 2356:0] [debug variable = i_op]
  %4 = load %struct.ap_fixed_base** %1, align 8, !dbg !9242 ; [#uses=1 type=%struct.ap_fixed_base*] [debug line = 2356:0]
  %5 = load i32* %2, align 4, !dbg !9242          ; [#uses=1 type=i32] [debug line = 2356:0]
  call void @_ZN13ap_fixed_baseILi32ELi32ELb1EL9ap_q_mode5EL9ap_o_mode3ELi0EEC1Ei(%struct.ap_fixed_base.14* %3, i32 %5), !dbg !9242 ; [debug line = 2356:0]
  %6 = call zeroext i1 @_ZNK13ap_fixed_baseILi28ELi18ELb1EL9ap_q_mode5EL9ap_o_mode3ELi0EEgtILi32ELi32ELb1ELS0_5ELS1_3ELi0EEEbRKS_IXT_EXT0_EXT1_EXT2_EXT3_EXT4_EE(%struct.ap_fixed_base* %4, %struct.ap_fixed_base.14* %3), !dbg !9242 ; [#uses=1 type=i1] [debug line = 2356:0]
  ret i1 %6, !dbg !9242                           ; [debug line = 2356:0]
}

; [#uses=6]
define linkonce_odr %struct.ap_uint* @_ZN7ap_uintILi8EEaSERKS0_(%struct.ap_uint* %this, %struct.ap_uint* %op2) nounwind uwtable inlinehint alwaysinline align 2 {
  %1 = alloca %struct.ap_uint*, align 8           ; [#uses=2 type=%struct.ap_uint**]
  %2 = alloca %struct.ap_uint*, align 8           ; [#uses=2 type=%struct.ap_uint**]
  store %struct.ap_uint* %this, %struct.ap_uint** %1, align 8
  call void @llvm.dbg.declare(metadata !{%struct.ap_uint** %1}, metadata !9244), !dbg !9246 ; [debug line = 279:53] [debug variable = this]
  store %struct.ap_uint* %op2, %struct.ap_uint** %2, align 8
  call void @llvm.dbg.declare(metadata !{%struct.ap_uint** %2}, metadata !9247), !dbg !9248 ; [debug line = 279:87] [debug variable = op2]
  %3 = load %struct.ap_uint** %1                  ; [#uses=2 type=%struct.ap_uint*]
  %4 = load %struct.ap_uint** %2, align 8, !dbg !9249 ; [#uses=1 type=%struct.ap_uint*] [debug line = 280:10]
  %5 = bitcast %struct.ap_uint* %4 to %struct.ssdm_int.0*, !dbg !9249 ; [#uses=1 type=%struct.ssdm_int.0*] [debug line = 280:10]
  %6 = getelementptr inbounds %struct.ssdm_int.0* %5, i32 0, i32 0, !dbg !9249 ; [#uses=1 type=i8*] [debug line = 280:10]
  %7 = load i8* %6, align 1, !dbg !9249           ; [#uses=1 type=i8] [debug line = 280:10]
  %8 = bitcast %struct.ap_uint* %3 to %struct.ap_int_base*, !dbg !9249 ; [#uses=1 type=%struct.ap_int_base*] [debug line = 280:10]
  %9 = bitcast %struct.ap_int_base* %8 to %struct.ssdm_int.0*, !dbg !9249 ; [#uses=1 type=%struct.ssdm_int.0*] [debug line = 280:10]
  %10 = getelementptr inbounds %struct.ssdm_int.0* %9, i32 0, i32 0, !dbg !9249 ; [#uses=1 type=i8*] [debug line = 280:10]
  store i8 %7, i8* %10, align 1, !dbg !9249       ; [debug line = 280:10]
  ret %struct.ap_uint* %3, !dbg !9251             ; [debug line = 281:10]
}

; [#uses=3]
define linkonce_odr void @_ZN7ap_uintILi8EEC1ILi28ELi18EL9ap_q_mode5EL9ap_o_mode3ELi0EEERK8ap_fixedIXT_EXT0_EXT1_EXT2_EXT3_EE(%struct.ap_uint* %this, %struct.ap_fixed* %op) unnamed_addr nounwind uwtable inlinehint alwaysinline align 2 {
  %1 = alloca %struct.ap_uint*, align 8           ; [#uses=2 type=%struct.ap_uint**]
  %2 = alloca %struct.ap_fixed*, align 8          ; [#uses=2 type=%struct.ap_fixed**]
  store %struct.ap_uint* %this, %struct.ap_uint** %1, align 8
  call void @llvm.dbg.declare(metadata !{%struct.ap_uint** %1}, metadata !9252), !dbg !9253 ; [debug line = 209:43] [debug variable = this]
  store %struct.ap_fixed* %op, %struct.ap_fixed** %2, align 8
  call void @llvm.dbg.declare(metadata !{%struct.ap_fixed** %2}, metadata !9254), !dbg !9255 ; [debug line = 209:107] [debug variable = op]
  %3 = load %struct.ap_uint** %1                  ; [#uses=1 type=%struct.ap_uint*]
  %4 = load %struct.ap_fixed** %2, !dbg !9256     ; [#uses=1 type=%struct.ap_fixed*] [debug line = 210:81]
  call void @_ZN7ap_uintILi8EEC2ILi28ELi18EL9ap_q_mode5EL9ap_o_mode3ELi0EEERK8ap_fixedIXT_EXT0_EXT1_EXT2_EXT3_EE(%struct.ap_uint* %3, %struct.ap_fixed* %4), !dbg !9256 ; [debug line = 210:81]
  ret void, !dbg !9256                            ; [debug line = 210:81]
}

; [#uses=0]
define void @_Z10filter_hlsPK7pixel_tPS_(%struct.pixel_t* %data_in, %struct.pixel_t* %data_out) nounwind uwtable {
  %1 = alloca %struct.pixel_t*, align 8           ; [#uses=4 type=%struct.pixel_t**]
  %2 = alloca %struct.pixel_t*, align 8           ; [#uses=4 type=%struct.pixel_t**]
  %KERNEL_OFFSET = alloca i32, align 4            ; [#uses=1 type=i32*]
  %y = alloca i32, align 4                        ; [#uses=8 type=i32*]
  %x = alloca i32, align 4                        ; [#uses=13 type=i32*]
  %v = alloca i32, align 4                        ; [#uses=6 type=i32*]
  %u = alloca i32, align 4                        ; [#uses=6 type=i32*]
  %v1 = alloca i32, align 4                       ; [#uses=6 type=i32*]
  %v2 = alloca i32, align 4                       ; [#uses=6 type=i32*]
  %v3 = alloca i32, align 4                       ; [#uses=5 type=i32*]
  %3 = alloca %struct.pixel_t, align 1            ; [#uses=4 type=%struct.pixel_t*]
  %input = alloca %struct.pixel_t, align 1        ; [#uses=6 type=%struct.pixel_t*]
  %4 = alloca %struct.pixel_t, align 1            ; [#uses=4 type=%struct.pixel_t*]
  %output = alloca %struct.pixel_t, align 1       ; [#uses=2 type=%struct.pixel_t*]
  store %struct.pixel_t* %data_in, %struct.pixel_t** %1, align 8
  call void @llvm.dbg.declare(metadata !{%struct.pixel_t** %1}, metadata !9257), !dbg !9258 ; [debug line = 42:32] [debug variable = data_in]
  store %struct.pixel_t* %data_out, %struct.pixel_t** %2, align 8
  call void @llvm.dbg.declare(metadata !{%struct.pixel_t** %2}, metadata !9259), !dbg !9260 ; [debug line = 42:50] [debug variable = data_out]
  %5 = load %struct.pixel_t** %1, align 8, !dbg !9261 ; [#uses=1 type=%struct.pixel_t*] [debug line = 43:1]
  call void (...)* @_ssdm_op_SpecInterface(%struct.pixel_t* %5, i8* getelementptr inbounds ([5 x i8]* @.str3, i32 0, i32 0), i32 1, i32 1, i8* getelementptr inbounds ([5 x i8]* @.str4, i32 0, i32 0), i32 0, i32 0, i8* getelementptr inbounds ([1 x i8]* @.str, i32 0, i32 0), i8* getelementptr inbounds ([1 x i8]* @.str, i32 0, i32 0), i8* getelementptr inbounds ([1 x i8]* @.str, i32 0, i32 0), i32 0, i32 0, i32 0, i32 0, i8* getelementptr inbounds ([1 x i8]* @.str, i32 0, i32 0), i8* getelementptr inbounds ([1 x i8]* @.str, i32 0, i32 0)) nounwind, !dbg !9261 ; [debug line = 43:1]
  %6 = load %struct.pixel_t** %2, align 8, !dbg !9263 ; [#uses=1 type=%struct.pixel_t*] [debug line = 44:1]
  call void (...)* @_ssdm_op_SpecInterface(%struct.pixel_t* %6, i8* getelementptr inbounds ([5 x i8]* @.str3, i32 0, i32 0), i32 1, i32 1, i8* getelementptr inbounds ([5 x i8]* @.str4, i32 0, i32 0), i32 0, i32 0, i8* getelementptr inbounds ([1 x i8]* @.str, i32 0, i32 0), i8* getelementptr inbounds ([1 x i8]* @.str, i32 0, i32 0), i8* getelementptr inbounds ([1 x i8]* @.str, i32 0, i32 0), i32 0, i32 0, i32 0, i32 0, i8* getelementptr inbounds ([1 x i8]* @.str, i32 0, i32 0), i8* getelementptr inbounds ([1 x i8]* @.str, i32 0, i32 0)) nounwind, !dbg !9263 ; [debug line = 44:1]
  %7 = load %struct.pixel_t** %1, align 8, !dbg !9264 ; [#uses=1 type=%struct.pixel_t*] [debug line = 46:1]
  call void (...)* @_ssdm_DataPack(%struct.pixel_t* %7, i32 0, i32 0, i8* getelementptr inbounds ([1 x i8]* @.str, i32 0, i32 0), i8* getelementptr inbounds ([1 x i8]* @.str, i32 0, i32 0), i8* getelementptr inbounds ([1 x i8]* @.str, i32 0, i32 0)) nounwind, !dbg !9264 ; [debug line = 46:1]
  %8 = load %struct.pixel_t** %2, align 8, !dbg !9265 ; [#uses=1 type=%struct.pixel_t*] [debug line = 47:1]
  call void (...)* @_ssdm_DataPack(%struct.pixel_t* %8, i32 0, i32 0, i8* getelementptr inbounds ([1 x i8]* @.str, i32 0, i32 0), i8* getelementptr inbounds ([1 x i8]* @.str, i32 0, i32 0), i8* getelementptr inbounds ([1 x i8]* @.str, i32 0, i32 0)) nounwind, !dbg !9265 ; [debug line = 47:1]
  %9 = load i8* @_ZGVZ10filter_hlsPK7pixel_tPS_E5lines, align 1, !dbg !9266 ; [#uses=1 type=i8] [debug line = 49:51]
  %10 = icmp eq i8 %9, 0, !dbg !9266              ; [#uses=1 type=i1] [debug line = 49:51]
  br i1 %10, label %11, label %17, !dbg !9266     ; [debug line = 49:51]

; <label>:11                                      ; preds = %0
  br label %12, !dbg !9266                        ; [debug line = 49:51]

; <label>:12                                      ; preds = %12, %11
  %13 = phi %struct.pixel_t* [ getelementptr inbounds ([2 x [1920 x %struct.pixel_t]]* @_ZZ10filter_hlsPK7pixel_tPS_E5lines, i32 0, i32 0, i32 0), %11 ], [ %14, %12 ], !dbg !9266 ; [#uses=2 type=%struct.pixel_t*] [debug line = 49:51]
  call void @_ZN7pixel_tC1Ev(%struct.pixel_t* %13), !dbg !9266 ; [debug line = 49:51]
  %14 = getelementptr inbounds %struct.pixel_t* %13, i64 1, !dbg !9266 ; [#uses=2 type=%struct.pixel_t*] [debug line = 49:51]
  %15 = icmp eq %struct.pixel_t* %14, getelementptr inbounds ([2 x [1920 x %struct.pixel_t]]* @_ZZ10filter_hlsPK7pixel_tPS_E5lines, i64 1, i64 0, i64 0), !dbg !9266 ; [#uses=1 type=i1] [debug line = 49:51]
  br i1 %15, label %16, label %12, !dbg !9266     ; [debug line = 49:51]

; <label>:16                                      ; preds = %12
  store i8 1, i8* @_ZGVZ10filter_hlsPK7pixel_tPS_E5lines, !dbg !9266 ; [debug line = 49:51]
  br label %17, !dbg !9266                        ; [debug line = 49:51]

; <label>:17                                      ; preds = %16, %0
  %18 = load i8* @_ZGVZ10filter_hlsPK7pixel_tPS_E6window, align 1, !dbg !9267 ; [#uses=1 type=i8] [debug line = 50:52]
  %19 = icmp eq i8 %18, 0, !dbg !9267             ; [#uses=1 type=i1] [debug line = 50:52]
  br i1 %19, label %20, label %26, !dbg !9267     ; [debug line = 50:52]

; <label>:20                                      ; preds = %17
  br label %21, !dbg !9267                        ; [debug line = 50:52]

; <label>:21                                      ; preds = %21, %20
  %22 = phi %struct.pixel_t* [ getelementptr inbounds ([3 x [3 x %struct.pixel_t]]* @_ZZ10filter_hlsPK7pixel_tPS_E6window, i32 0, i32 0, i32 0), %20 ], [ %23, %21 ], !dbg !9267 ; [#uses=2 type=%struct.pixel_t*] [debug line = 50:52]
  call void @_ZN7pixel_tC1Ev(%struct.pixel_t* %22), !dbg !9267 ; [debug line = 50:52]
  %23 = getelementptr inbounds %struct.pixel_t* %22, i64 1, !dbg !9267 ; [#uses=2 type=%struct.pixel_t*] [debug line = 50:52]
  %24 = icmp eq %struct.pixel_t* %23, getelementptr inbounds ([3 x [3 x %struct.pixel_t]]* @_ZZ10filter_hlsPK7pixel_tPS_E6window, i64 1, i64 0, i64 0), !dbg !9267 ; [#uses=1 type=i1] [debug line = 50:52]
  br i1 %24, label %25, label %21, !dbg !9267     ; [debug line = 50:52]

; <label>:25                                      ; preds = %21
  store i8 1, i8* @_ZGVZ10filter_hlsPK7pixel_tPS_E6window, !dbg !9267 ; [debug line = 50:52]
  br label %26, !dbg !9267                        ; [debug line = 50:52]

; <label>:26                                      ; preds = %25, %17
  call void @llvm.dbg.declare(metadata !{i32* %KERNEL_OFFSET}, metadata !9268), !dbg !9269 ; [debug line = 52:15] [debug variable = KERNEL_OFFSET]
  store i32 1, i32* %KERNEL_OFFSET, align 4, !dbg !9270 ; [debug line = 52:48]
  br label %27, !dbg !9270                        ; [debug line = 52:48]

; <label>:27                                      ; preds = %26
  call void @llvm.dbg.declare(metadata !{i32* %y}, metadata !9271), !dbg !9273 ; [debug line = 54:22] [debug variable = y]
  store i32 0, i32* %y, align 4, !dbg !9274       ; [debug line = 54:27]
  br label %28, !dbg !9274                        ; [debug line = 54:27]

; <label>:28                                      ; preds = %203, %27
  %29 = load i32* %y, align 4, !dbg !9274         ; [#uses=1 type=i32] [debug line = 54:27]
  %30 = icmp slt i32 %29, 1081, !dbg !9274        ; [#uses=1 type=i1] [debug line = 54:27]
  br i1 %30, label %31, label %206, !dbg !9274    ; [debug line = 54:27]

; <label>:31                                      ; preds = %28
  call void (...)* @_ssdm_op_SpecLoopName(i8* getelementptr inbounds ([7 x i8]* @.str5, i32 0, i32 0)) nounwind, !dbg !9275 ; [debug line = 54:69]
  call void (...)* @_ssdm_RegionBegin(i8* getelementptr inbounds ([7 x i8]* @.str5, i32 0, i32 0)) nounwind, !dbg !9275 ; [debug line = 54:69]
  br label %32, !dbg !9275                        ; [debug line = 54:69]

; <label>:32                                      ; preds = %31
  call void @llvm.dbg.declare(metadata !{i32* %x}, metadata !9277), !dbg !9279 ; [debug line = 55:26] [debug variable = x]
  store i32 0, i32* %x, align 4, !dbg !9280       ; [debug line = 55:31]
  br label %33, !dbg !9280                        ; [debug line = 55:31]

; <label>:33                                      ; preds = %199, %32
  %34 = load i32* %x, align 4, !dbg !9280         ; [#uses=1 type=i32] [debug line = 55:31]
  %35 = icmp slt i32 %34, 1921, !dbg !9280        ; [#uses=1 type=i1] [debug line = 55:31]
  br i1 %35, label %36, label %202, !dbg !9280    ; [debug line = 55:31]

; <label>:36                                      ; preds = %33
  call void (...)* @_ssdm_op_SpecLoopName(i8* getelementptr inbounds ([7 x i8]* @.str6, i32 0, i32 0)) nounwind, !dbg !9281 ; [debug line = 55:73]
  call void (...)* @_ssdm_RegionBegin(i8* getelementptr inbounds ([7 x i8]* @.str6, i32 0, i32 0)) nounwind, !dbg !9281 ; [debug line = 55:73]
  call void (...)* @_ssdm_op_SpecPipeline(i32 1, i32 1, i32 1, i32 0, i8* getelementptr inbounds ([1 x i8]* @.str, i32 0, i32 0)) nounwind, !dbg !9283 ; [debug line = 56:1]
  call void @llvm.dbg.declare(metadata !{i32* %v}, metadata !9284), !dbg !9286 ; [debug line = 58:22] [debug variable = v]
  store i32 0, i32* %v, align 4, !dbg !9287       ; [debug line = 58:27]
  br label %37, !dbg !9287                        ; [debug line = 58:27]

; <label>:37                                      ; preds = %63, %36
  %38 = load i32* %v, align 4, !dbg !9287         ; [#uses=1 type=i32] [debug line = 58:27]
  %39 = icmp slt i32 %38, 3, !dbg !9287           ; [#uses=1 type=i1] [debug line = 58:27]
  br i1 %39, label %40, label %66, !dbg !9287     ; [debug line = 58:27]

; <label>:40                                      ; preds = %37
  call void @llvm.dbg.declare(metadata !{i32* %u}, metadata !9288), !dbg !9290 ; [debug line = 59:26] [debug variable = u]
  store i32 0, i32* %u, align 4, !dbg !9291       ; [debug line = 59:31]
  br label %41, !dbg !9291                        ; [debug line = 59:31]

; <label>:41                                      ; preds = %59, %40
  %42 = load i32* %u, align 4, !dbg !9291         ; [#uses=1 type=i32] [debug line = 59:31]
  %43 = icmp slt i32 %42, 2, !dbg !9291           ; [#uses=1 type=i1] [debug line = 59:31]
  br i1 %43, label %44, label %62, !dbg !9291     ; [debug line = 59:31]

; <label>:44                                      ; preds = %41
  %45 = load i32* %u, align 4, !dbg !9292         ; [#uses=1 type=i32] [debug line = 60:21]
  %46 = sext i32 %45 to i64, !dbg !9292           ; [#uses=1 type=i64] [debug line = 60:21]
  %47 = load i32* %v, align 4, !dbg !9292         ; [#uses=1 type=i32] [debug line = 60:21]
  %48 = sext i32 %47 to i64, !dbg !9292           ; [#uses=1 type=i64] [debug line = 60:21]
  %49 = getelementptr inbounds [3 x [3 x %struct.pixel_t]]* @_ZZ10filter_hlsPK7pixel_tPS_E6window, i32 0, i64 %48, !dbg !9292 ; [#uses=1 type=[3 x %struct.pixel_t]*] [debug line = 60:21]
  %50 = getelementptr inbounds [3 x %struct.pixel_t]* %49, i32 0, i64 %46, !dbg !9292 ; [#uses=1 type=%struct.pixel_t*] [debug line = 60:21]
  %51 = load i32* %u, align 4, !dbg !9292         ; [#uses=1 type=i32] [debug line = 60:21]
  %52 = add nsw i32 %51, 1, !dbg !9292            ; [#uses=1 type=i32] [debug line = 60:21]
  %53 = sext i32 %52 to i64, !dbg !9292           ; [#uses=1 type=i64] [debug line = 60:21]
  %54 = load i32* %v, align 4, !dbg !9292         ; [#uses=1 type=i32] [debug line = 60:21]
  %55 = sext i32 %54 to i64, !dbg !9292           ; [#uses=1 type=i64] [debug line = 60:21]
  %56 = getelementptr inbounds [3 x [3 x %struct.pixel_t]]* @_ZZ10filter_hlsPK7pixel_tPS_E6window, i32 0, i64 %55, !dbg !9292 ; [#uses=1 type=[3 x %struct.pixel_t]*] [debug line = 60:21]
  %57 = getelementptr inbounds [3 x %struct.pixel_t]* %56, i32 0, i64 %53, !dbg !9292 ; [#uses=1 type=%struct.pixel_t*] [debug line = 60:21]
  %58 = call %struct.pixel_t* @_ZN7pixel_taSERKS_(%struct.pixel_t* %50, %struct.pixel_t* %57), !dbg !9292 ; [#uses=0 type=%struct.pixel_t*] [debug line = 60:21]
  br label %59, !dbg !9292                        ; [debug line = 60:21]

; <label>:59                                      ; preds = %44
  %60 = load i32* %u, align 4, !dbg !9293         ; [#uses=1 type=i32] [debug line = 59:52]
  %61 = add nsw i32 %60, 1, !dbg !9293            ; [#uses=1 type=i32] [debug line = 59:52]
  store i32 %61, i32* %u, align 4, !dbg !9293     ; [debug line = 59:52]
  br label %41, !dbg !9293                        ; [debug line = 59:52]

; <label>:62                                      ; preds = %41
  br label %63, !dbg !9294                        ; [debug line = 60:49]

; <label>:63                                      ; preds = %62
  %64 = load i32* %v, align 4, !dbg !9295         ; [#uses=1 type=i32] [debug line = 58:46]
  %65 = add nsw i32 %64, 1, !dbg !9295            ; [#uses=1 type=i32] [debug line = 58:46]
  store i32 %65, i32* %v, align 4, !dbg !9295     ; [debug line = 58:46]
  br label %37, !dbg !9295                        ; [debug line = 58:46]

; <label>:66                                      ; preds = %37
  %67 = load i32* %x, align 4, !dbg !9296         ; [#uses=1 type=i32] [debug line = 62:13]
  %68 = icmp slt i32 %67, 1920, !dbg !9296        ; [#uses=1 type=i1] [debug line = 62:13]
  br i1 %68, label %69, label %111, !dbg !9296    ; [debug line = 62:13]

; <label>:69                                      ; preds = %66
  call void @llvm.dbg.declare(metadata !{i32* %v1}, metadata !9297), !dbg !9300 ; [debug line = 64:26] [debug variable = v]
  store i32 0, i32* %v1, align 4, !dbg !9301      ; [debug line = 64:31]
  br label %70, !dbg !9301                        ; [debug line = 64:31]

; <label>:70                                      ; preds = %85, %69
  %71 = load i32* %v1, align 4, !dbg !9301        ; [#uses=1 type=i32] [debug line = 64:31]
  %72 = icmp slt i32 %71, 2, !dbg !9301           ; [#uses=1 type=i1] [debug line = 64:31]
  br i1 %72, label %73, label %88, !dbg !9301     ; [debug line = 64:31]

; <label>:73                                      ; preds = %70
  %74 = load i32* %v1, align 4, !dbg !9302        ; [#uses=1 type=i32] [debug line = 65:21]
  %75 = sext i32 %74 to i64, !dbg !9302           ; [#uses=1 type=i64] [debug line = 65:21]
  %76 = getelementptr inbounds [3 x [3 x %struct.pixel_t]]* @_ZZ10filter_hlsPK7pixel_tPS_E6window, i32 0, i64 %75, !dbg !9302 ; [#uses=1 type=[3 x %struct.pixel_t]*] [debug line = 65:21]
  %77 = getelementptr inbounds [3 x %struct.pixel_t]* %76, i32 0, i64 2, !dbg !9302 ; [#uses=1 type=%struct.pixel_t*] [debug line = 65:21]
  %78 = load i32* %x, align 4, !dbg !9302         ; [#uses=1 type=i32] [debug line = 65:21]
  %79 = sext i32 %78 to i64, !dbg !9302           ; [#uses=1 type=i64] [debug line = 65:21]
  %80 = load i32* %v1, align 4, !dbg !9302        ; [#uses=1 type=i32] [debug line = 65:21]
  %81 = sext i32 %80 to i64, !dbg !9302           ; [#uses=1 type=i64] [debug line = 65:21]
  %82 = getelementptr inbounds [2 x [1920 x %struct.pixel_t]]* @_ZZ10filter_hlsPK7pixel_tPS_E5lines, i32 0, i64 %81, !dbg !9302 ; [#uses=1 type=[1920 x %struct.pixel_t]*] [debug line = 65:21]
  %83 = getelementptr inbounds [1920 x %struct.pixel_t]* %82, i32 0, i64 %79, !dbg !9302 ; [#uses=1 type=%struct.pixel_t*] [debug line = 65:21]
  %84 = call %struct.pixel_t* @_ZN7pixel_taSERKS_(%struct.pixel_t* %77, %struct.pixel_t* %83), !dbg !9302 ; [#uses=0 type=%struct.pixel_t*] [debug line = 65:21]
  br label %85, !dbg !9302                        ; [debug line = 65:21]

; <label>:85                                      ; preds = %73
  %86 = load i32* %v1, align 4, !dbg !9303        ; [#uses=1 type=i32] [debug line = 64:52]
  %87 = add nsw i32 %86, 1, !dbg !9303            ; [#uses=1 type=i32] [debug line = 64:52]
  store i32 %87, i32* %v1, align 4, !dbg !9303    ; [debug line = 64:52]
  br label %70, !dbg !9303                        ; [debug line = 64:52]

; <label>:88                                      ; preds = %70
  call void @llvm.dbg.declare(metadata !{i32* %v2}, metadata !9304), !dbg !9306 ; [debug line = 68:26] [debug variable = v]
  store i32 0, i32* %v2, align 4, !dbg !9307      ; [debug line = 68:31]
  br label %89, !dbg !9307                        ; [debug line = 68:31]

; <label>:89                                      ; preds = %107, %88
  %90 = load i32* %v2, align 4, !dbg !9307        ; [#uses=1 type=i32] [debug line = 68:31]
  %91 = icmp slt i32 %90, 1, !dbg !9307           ; [#uses=1 type=i1] [debug line = 68:31]
  br i1 %91, label %92, label %110, !dbg !9307    ; [debug line = 68:31]

; <label>:92                                      ; preds = %89
  %93 = load i32* %x, align 4, !dbg !9308         ; [#uses=1 type=i32] [debug line = 69:21]
  %94 = sext i32 %93 to i64, !dbg !9308           ; [#uses=1 type=i64] [debug line = 69:21]
  %95 = load i32* %v2, align 4, !dbg !9308        ; [#uses=1 type=i32] [debug line = 69:21]
  %96 = sext i32 %95 to i64, !dbg !9308           ; [#uses=1 type=i64] [debug line = 69:21]
  %97 = getelementptr inbounds [2 x [1920 x %struct.pixel_t]]* @_ZZ10filter_hlsPK7pixel_tPS_E5lines, i32 0, i64 %96, !dbg !9308 ; [#uses=1 type=[1920 x %struct.pixel_t]*] [debug line = 69:21]
  %98 = getelementptr inbounds [1920 x %struct.pixel_t]* %97, i32 0, i64 %94, !dbg !9308 ; [#uses=1 type=%struct.pixel_t*] [debug line = 69:21]
  %99 = load i32* %x, align 4, !dbg !9308         ; [#uses=1 type=i32] [debug line = 69:21]
  %100 = sext i32 %99 to i64, !dbg !9308          ; [#uses=1 type=i64] [debug line = 69:21]
  %101 = load i32* %v2, align 4, !dbg !9308       ; [#uses=1 type=i32] [debug line = 69:21]
  %102 = add nsw i32 %101, 1, !dbg !9308          ; [#uses=1 type=i32] [debug line = 69:21]
  %103 = sext i32 %102 to i64, !dbg !9308         ; [#uses=1 type=i64] [debug line = 69:21]
  %104 = getelementptr inbounds [2 x [1920 x %struct.pixel_t]]* @_ZZ10filter_hlsPK7pixel_tPS_E5lines, i32 0, i64 %103, !dbg !9308 ; [#uses=1 type=[1920 x %struct.pixel_t]*] [debug line = 69:21]
  %105 = getelementptr inbounds [1920 x %struct.pixel_t]* %104, i32 0, i64 %100, !dbg !9308 ; [#uses=1 type=%struct.pixel_t*] [debug line = 69:21]
  %106 = call %struct.pixel_t* @_ZN7pixel_taSERKS_(%struct.pixel_t* %98, %struct.pixel_t* %105), !dbg !9308 ; [#uses=0 type=%struct.pixel_t*] [debug line = 69:21]
  br label %107, !dbg !9308                       ; [debug line = 69:21]

; <label>:107                                     ; preds = %92
  %108 = load i32* %v2, align 4, !dbg !9309       ; [#uses=1 type=i32] [debug line = 68:52]
  %109 = add nsw i32 %108, 1, !dbg !9309          ; [#uses=1 type=i32] [debug line = 68:52]
  store i32 %109, i32* %v2, align 4, !dbg !9309   ; [debug line = 68:52]
  br label %89, !dbg !9309                        ; [debug line = 68:52]

; <label>:110                                     ; preds = %89
  br label %128, !dbg !9310                       ; [debug line = 70:13]

; <label>:111                                     ; preds = %66
  call void @llvm.dbg.declare(metadata !{i32* %v3}, metadata !9311), !dbg !9314 ; [debug line = 71:26] [debug variable = v]
  store i32 0, i32* %v3, align 4, !dbg !9315      ; [debug line = 71:31]
  br label %112, !dbg !9315                       ; [debug line = 71:31]

; <label>:112                                     ; preds = %124, %111
  %113 = load i32* %v3, align 4, !dbg !9315       ; [#uses=1 type=i32] [debug line = 71:31]
  %114 = icmp slt i32 %113, 2, !dbg !9315         ; [#uses=1 type=i1] [debug line = 71:31]
  br i1 %114, label %115, label %127, !dbg !9315  ; [debug line = 71:31]

; <label>:115                                     ; preds = %112
  %116 = load i32* %v3, align 4, !dbg !9316       ; [#uses=1 type=i32] [debug line = 72:21]
  %117 = sext i32 %116 to i64, !dbg !9316         ; [#uses=1 type=i64] [debug line = 72:21]
  %118 = getelementptr inbounds [3 x [3 x %struct.pixel_t]]* @_ZZ10filter_hlsPK7pixel_tPS_E6window, i32 0, i64 %117, !dbg !9316 ; [#uses=1 type=[3 x %struct.pixel_t]*] [debug line = 72:21]
  %119 = getelementptr inbounds [3 x %struct.pixel_t]* %118, i32 0, i64 2, !dbg !9316 ; [#uses=1 type=%struct.pixel_t*] [debug line = 72:21]
  %120 = getelementptr inbounds %struct.pixel_t* %3, i32 0, i32 0, !dbg !9316 ; [#uses=1 type=%struct.ap_uint*] [debug line = 72:21]
  call void @_ZN7ap_uintILi8EEC1Ei(%struct.ap_uint* %120, i32 0), !dbg !9316 ; [debug line = 72:21]
  %121 = getelementptr inbounds %struct.pixel_t* %3, i32 0, i32 1, !dbg !9316 ; [#uses=1 type=%struct.ap_uint*] [debug line = 72:21]
  call void @_ZN7ap_uintILi8EEC1Ei(%struct.ap_uint* %121, i32 0), !dbg !9316 ; [debug line = 72:21]
  %122 = getelementptr inbounds %struct.pixel_t* %3, i32 0, i32 2, !dbg !9316 ; [#uses=1 type=%struct.ap_uint*] [debug line = 72:21]
  call void @_ZN7ap_uintILi8EEC1Ei(%struct.ap_uint* %122, i32 0), !dbg !9316 ; [debug line = 72:21]
  %123 = call %struct.pixel_t* @_ZN7pixel_taSERKS_(%struct.pixel_t* %119, %struct.pixel_t* %3), !dbg !9316 ; [#uses=0 type=%struct.pixel_t*] [debug line = 72:21]
  br label %124, !dbg !9316                       ; [debug line = 72:21]

; <label>:124                                     ; preds = %115
  %125 = load i32* %v3, align 4, !dbg !9317       ; [#uses=1 type=i32] [debug line = 71:52]
  %126 = add nsw i32 %125, 1, !dbg !9317          ; [#uses=1 type=i32] [debug line = 71:52]
  store i32 %126, i32* %v3, align 4, !dbg !9317   ; [debug line = 71:52]
  br label %112, !dbg !9317                       ; [debug line = 71:52]

; <label>:127                                     ; preds = %112
  br label %128

; <label>:128                                     ; preds = %127, %110
  %129 = load i32* %x, align 4, !dbg !9318        ; [#uses=1 type=i32] [debug line = 76:13]
  %130 = icmp slt i32 %129, 1920, !dbg !9318      ; [#uses=1 type=i1] [debug line = 76:13]
  br i1 %130, label %131, label %176, !dbg !9318  ; [debug line = 76:13]

; <label>:131                                     ; preds = %128
  %132 = load i32* %y, align 4, !dbg !9318        ; [#uses=1 type=i32] [debug line = 76:13]
  %133 = icmp slt i32 %132, 1080, !dbg !9318      ; [#uses=1 type=i1] [debug line = 76:13]
  br i1 %133, label %134, label %176, !dbg !9318  ; [debug line = 76:13]

; <label>:134                                     ; preds = %131
  call void @llvm.dbg.declare(metadata !{%struct.pixel_t* %input}, metadata !9319), !dbg !9321 ; [debug line = 77:25] [debug variable = input]
  %135 = load i32* %y, align 4, !dbg !9322        ; [#uses=1 type=i32] [debug line = 77:58]
  %136 = mul nsw i32 %135, 1920, !dbg !9322       ; [#uses=1 type=i32] [debug line = 77:58]
  %137 = load i32* %x, align 4, !dbg !9322        ; [#uses=1 type=i32] [debug line = 77:58]
  %138 = add nsw i32 %136, %137, !dbg !9322       ; [#uses=1 type=i32] [debug line = 77:58]
  %139 = sext i32 %138 to i64, !dbg !9322         ; [#uses=1 type=i64] [debug line = 77:58]
  %140 = load %struct.pixel_t** %1, align 8, !dbg !9322 ; [#uses=1 type=%struct.pixel_t*] [debug line = 77:58]
  %141 = getelementptr inbounds %struct.pixel_t* %140, i64 %139, !dbg !9322 ; [#uses=4 type=%struct.pixel_t*] [debug line = 77:58]
  %142 = bitcast %struct.pixel_t* %input to i8*, !dbg !9322 ; [#uses=0 type=i8*] [debug line = 77:58]
  %143 = bitcast %struct.pixel_t* %141 to i8*, !dbg !9322 ; [#uses=0 type=i8*] [debug line = 77:58]
  %144 = getelementptr inbounds %struct.pixel_t* %input, i32 0, i32 0, !dbg !9322 ; [#uses=1 type=%struct.ap_uint*] [debug line = 77:58]
  %145 = getelementptr inbounds %struct.pixel_t* %141, i32 0, i32 0, !dbg !9322 ; [#uses=1 type=%struct.ap_uint*] [debug line = 77:58]
  %146 = getelementptr inbounds %struct.ap_uint* %144, i32 0, i32 0, !dbg !9322 ; [#uses=1 type=%struct.ap_int_base*] [debug line = 77:58]
  %147 = getelementptr inbounds %struct.ap_uint* %145, i32 0, i32 0, !dbg !9322 ; [#uses=1 type=%struct.ap_int_base*] [debug line = 77:58]
  %148 = getelementptr inbounds %struct.ap_int_base* %146, i32 0, i32 0, !dbg !9322 ; [#uses=1 type=%struct.ssdm_int.0*] [debug line = 77:58]
  %149 = getelementptr inbounds %struct.ap_int_base* %147, i32 0, i32 0, !dbg !9322 ; [#uses=1 type=%struct.ssdm_int.0*] [debug line = 77:58]
  %150 = getelementptr inbounds %struct.ssdm_int.0* %148, i32 0, i32 0, !dbg !9322 ; [#uses=1 type=i8*] [debug line = 77:58]
  %151 = getelementptr inbounds %struct.ssdm_int.0* %149, i32 0, i32 0, !dbg !9322 ; [#uses=1 type=i8*] [debug line = 77:58]
  %152 = load i8* %151, !dbg !9322                ; [#uses=1 type=i8] [debug line = 77:58]
  store i8 %152, i8* %150, !dbg !9322             ; [debug line = 77:58]
  %153 = getelementptr inbounds %struct.pixel_t* %input, i32 0, i32 1, !dbg !9322 ; [#uses=1 type=%struct.ap_uint*] [debug line = 77:58]
  %154 = getelementptr inbounds %struct.pixel_t* %141, i32 0, i32 1, !dbg !9322 ; [#uses=1 type=%struct.ap_uint*] [debug line = 77:58]
  %155 = getelementptr inbounds %struct.ap_uint* %153, i32 0, i32 0, !dbg !9322 ; [#uses=1 type=%struct.ap_int_base*] [debug line = 77:58]
  %156 = getelementptr inbounds %struct.ap_uint* %154, i32 0, i32 0, !dbg !9322 ; [#uses=1 type=%struct.ap_int_base*] [debug line = 77:58]
  %157 = getelementptr inbounds %struct.ap_int_base* %155, i32 0, i32 0, !dbg !9322 ; [#uses=1 type=%struct.ssdm_int.0*] [debug line = 77:58]
  %158 = getelementptr inbounds %struct.ap_int_base* %156, i32 0, i32 0, !dbg !9322 ; [#uses=1 type=%struct.ssdm_int.0*] [debug line = 77:58]
  %159 = getelementptr inbounds %struct.ssdm_int.0* %157, i32 0, i32 0, !dbg !9322 ; [#uses=1 type=i8*] [debug line = 77:58]
  %160 = getelementptr inbounds %struct.ssdm_int.0* %158, i32 0, i32 0, !dbg !9322 ; [#uses=1 type=i8*] [debug line = 77:58]
  %161 = load i8* %160, !dbg !9322                ; [#uses=1 type=i8] [debug line = 77:58]
  store i8 %161, i8* %159, !dbg !9322             ; [debug line = 77:58]
  %162 = getelementptr inbounds %struct.pixel_t* %input, i32 0, i32 2, !dbg !9322 ; [#uses=1 type=%struct.ap_uint*] [debug line = 77:58]
  %163 = getelementptr inbounds %struct.pixel_t* %141, i32 0, i32 2, !dbg !9322 ; [#uses=1 type=%struct.ap_uint*] [debug line = 77:58]
  %164 = getelementptr inbounds %struct.ap_uint* %162, i32 0, i32 0, !dbg !9322 ; [#uses=1 type=%struct.ap_int_base*] [debug line = 77:58]
  %165 = getelementptr inbounds %struct.ap_uint* %163, i32 0, i32 0, !dbg !9322 ; [#uses=1 type=%struct.ap_int_base*] [debug line = 77:58]
  %166 = getelementptr inbounds %struct.ap_int_base* %164, i32 0, i32 0, !dbg !9322 ; [#uses=1 type=%struct.ssdm_int.0*] [debug line = 77:58]
  %167 = getelementptr inbounds %struct.ap_int_base* %165, i32 0, i32 0, !dbg !9322 ; [#uses=1 type=%struct.ssdm_int.0*] [debug line = 77:58]
  %168 = getelementptr inbounds %struct.ssdm_int.0* %166, i32 0, i32 0, !dbg !9322 ; [#uses=1 type=i8*] [debug line = 77:58]
  %169 = getelementptr inbounds %struct.ssdm_int.0* %167, i32 0, i32 0, !dbg !9322 ; [#uses=1 type=i8*] [debug line = 77:58]
  %170 = load i8* %169, !dbg !9322                ; [#uses=1 type=i8] [debug line = 77:58]
  store i8 %170, i8* %168, !dbg !9322             ; [debug line = 77:58]
  %171 = call %struct.pixel_t* @_ZN7pixel_taSERKS_(%struct.pixel_t* getelementptr inbounds ([3 x [3 x %struct.pixel_t]]* @_ZZ10filter_hlsPK7pixel_tPS_E6window, i32 0, i64 2, i64 2), %struct.pixel_t* %input), !dbg !9323 ; [#uses=0 type=%struct.pixel_t*] [debug line = 78:17]
  %172 = load i32* %x, align 4, !dbg !9324        ; [#uses=1 type=i32] [debug line = 79:17]
  %173 = sext i32 %172 to i64, !dbg !9324         ; [#uses=1 type=i64] [debug line = 79:17]
  %174 = getelementptr inbounds [1920 x %struct.pixel_t]* getelementptr inbounds ([2 x [1920 x %struct.pixel_t]]* @_ZZ10filter_hlsPK7pixel_tPS_E5lines, i32 0, i64 1), i32 0, i64 %173, !dbg !9324 ; [#uses=1 type=%struct.pixel_t*] [debug line = 79:17]
  %175 = call %struct.pixel_t* @_ZN7pixel_taSERKS_(%struct.pixel_t* %174, %struct.pixel_t* %input), !dbg !9324 ; [#uses=0 type=%struct.pixel_t*] [debug line = 79:17]
  br label %181, !dbg !9325                       ; [debug line = 80:13]

; <label>:176                                     ; preds = %131, %128
  %177 = getelementptr inbounds %struct.pixel_t* %4, i32 0, i32 0, !dbg !9326 ; [#uses=1 type=%struct.ap_uint*] [debug line = 81:17]
  call void @_ZN7ap_uintILi8EEC1Ei(%struct.ap_uint* %177, i32 0), !dbg !9326 ; [debug line = 81:17]
  %178 = getelementptr inbounds %struct.pixel_t* %4, i32 0, i32 1, !dbg !9326 ; [#uses=1 type=%struct.ap_uint*] [debug line = 81:17]
  call void @_ZN7ap_uintILi8EEC1Ei(%struct.ap_uint* %178, i32 0), !dbg !9326 ; [debug line = 81:17]
  %179 = getelementptr inbounds %struct.pixel_t* %4, i32 0, i32 2, !dbg !9326 ; [#uses=1 type=%struct.ap_uint*] [debug line = 81:17]
  call void @_ZN7ap_uintILi8EEC1Ei(%struct.ap_uint* %179, i32 0), !dbg !9326 ; [debug line = 81:17]
  %180 = call %struct.pixel_t* @_ZN7pixel_taSERKS_(%struct.pixel_t* getelementptr inbounds ([3 x [3 x %struct.pixel_t]]* @_ZZ10filter_hlsPK7pixel_tPS_E6window, i32 0, i64 2, i64 2), %struct.pixel_t* %4), !dbg !9326 ; [#uses=0 type=%struct.pixel_t*] [debug line = 81:17]
  br label %181

; <label>:181                                     ; preds = %176, %134
  %182 = load i32* %x, align 4, !dbg !9328        ; [#uses=1 type=i32] [debug line = 85:13]
  %183 = icmp sge i32 %182, 1, !dbg !9328         ; [#uses=1 type=i1] [debug line = 85:13]
  br i1 %183, label %184, label %198, !dbg !9328  ; [debug line = 85:13]

; <label>:184                                     ; preds = %181
  %185 = load i32* %y, align 4, !dbg !9328        ; [#uses=1 type=i32] [debug line = 85:13]
  %186 = icmp sge i32 %185, 1, !dbg !9328         ; [#uses=1 type=i1] [debug line = 85:13]
  br i1 %186, label %187, label %198, !dbg !9328  ; [debug line = 85:13]

; <label>:187                                     ; preds = %184
  call void @llvm.dbg.declare(metadata !{%struct.pixel_t* %output}, metadata !9329), !dbg !9331 ; [debug line = 86:25] [debug variable = output]
  call void @_Z12pixel_kernelPA3_7pixel_t(%struct.pixel_t* sret %output, [3 x %struct.pixel_t]* getelementptr inbounds ([3 x [3 x %struct.pixel_t]]* @_ZZ10filter_hlsPK7pixel_tPS_E6window, i32 0, i32 0)), !dbg !9332 ; [debug line = 86:34]
  %188 = load i32* %y, align 4, !dbg !9333        ; [#uses=1 type=i32] [debug line = 87:17]
  %189 = sub nsw i32 %188, 1, !dbg !9333          ; [#uses=1 type=i32] [debug line = 87:17]
  %190 = mul nsw i32 %189, 1920, !dbg !9333       ; [#uses=1 type=i32] [debug line = 87:17]
  %191 = load i32* %x, align 4, !dbg !9333        ; [#uses=1 type=i32] [debug line = 87:17]
  %192 = sub nsw i32 %191, 1, !dbg !9333          ; [#uses=1 type=i32] [debug line = 87:17]
  %193 = add nsw i32 %190, %192, !dbg !9333       ; [#uses=1 type=i32] [debug line = 87:17]
  %194 = sext i32 %193 to i64, !dbg !9333         ; [#uses=1 type=i64] [debug line = 87:17]
  %195 = load %struct.pixel_t** %2, align 8, !dbg !9333 ; [#uses=1 type=%struct.pixel_t*] [debug line = 87:17]
  %196 = getelementptr inbounds %struct.pixel_t* %195, i64 %194, !dbg !9333 ; [#uses=1 type=%struct.pixel_t*] [debug line = 87:17]
  %197 = call %struct.pixel_t* @_ZN7pixel_taSERKS_(%struct.pixel_t* %196, %struct.pixel_t* %output), !dbg !9333 ; [#uses=0 type=%struct.pixel_t*] [debug line = 87:17]
  br label %198, !dbg !9334                       ; [debug line = 88:13]

; <label>:198                                     ; preds = %187, %184, %181
  call void (...)* @_ssdm_RegionEnd(i8* getelementptr inbounds ([7 x i8]* @.str6, i32 0, i32 0)) nounwind, !dbg !9335 ; [debug line = 89:9]
  br label %199, !dbg !9335                       ; [debug line = 89:9]

; <label>:199                                     ; preds = %198
  %200 = load i32* %x, align 4, !dbg !9336        ; [#uses=1 type=i32] [debug line = 55:67]
  %201 = add nsw i32 %200, 1, !dbg !9336          ; [#uses=1 type=i32] [debug line = 55:67]
  store i32 %201, i32* %x, align 4, !dbg !9336    ; [debug line = 55:67]
  br label %33, !dbg !9336                        ; [debug line = 55:67]

; <label>:202                                     ; preds = %33
  call void (...)* @_ssdm_RegionEnd(i8* getelementptr inbounds ([7 x i8]* @.str5, i32 0, i32 0)) nounwind, !dbg !9337 ; [debug line = 90:5]
  br label %203, !dbg !9337                       ; [debug line = 90:5]

; <label>:203                                     ; preds = %202
  %204 = load i32* %y, align 4, !dbg !9338        ; [#uses=1 type=i32] [debug line = 54:63]
  %205 = add nsw i32 %204, 1, !dbg !9338          ; [#uses=1 type=i32] [debug line = 54:63]
  store i32 %205, i32* %y, align 4, !dbg !9338    ; [debug line = 54:63]
  br label %28, !dbg !9338                        ; [debug line = 54:63]

; <label>:206                                     ; preds = %28
  ret void, !dbg !9339                            ; [debug line = 91:1]
}

; [#uses=2]
declare void @_ssdm_op_SpecInterface(...) nounwind

; [#uses=2]
declare void @_ssdm_DataPack(...) nounwind

; [#uses=2]
declare void @_ssdm_op_SpecLoopName(...) nounwind

; [#uses=2]
declare void @_ssdm_RegionBegin(...) nounwind

; [#uses=1]
declare void @_ssdm_op_SpecPipeline(...) nounwind

; [#uses=8]
define linkonce_odr %struct.pixel_t* @_ZN7pixel_taSERKS_(%struct.pixel_t* %this, %struct.pixel_t*) nounwind uwtable inlinehint align 2 {
  %2 = alloca %struct.pixel_t*, align 8           ; [#uses=2 type=%struct.pixel_t**]
  %3 = alloca %struct.pixel_t*, align 8           ; [#uses=4 type=%struct.pixel_t**]
  store %struct.pixel_t* %this, %struct.pixel_t** %2, align 8
  call void @llvm.dbg.declare(metadata !{%struct.pixel_t** %2}, metadata !9340), !dbg !9341 ; [debug line = 21:9] [debug variable = this]
  store %struct.pixel_t* %0, %struct.pixel_t** %3, align 8
  %4 = load %struct.pixel_t** %2                  ; [#uses=4 type=%struct.pixel_t*]
  %5 = getelementptr inbounds %struct.pixel_t* %4, i32 0, i32 0, !dbg !9342 ; [#uses=1 type=%struct.ap_uint*] [debug line = 21:9]
  %6 = load %struct.pixel_t** %3, align 8, !dbg !9342 ; [#uses=1 type=%struct.pixel_t*] [debug line = 21:9]
  %7 = getelementptr inbounds %struct.pixel_t* %6, i32 0, i32 0, !dbg !9342 ; [#uses=1 type=%struct.ap_uint*] [debug line = 21:9]
  %8 = call %struct.ap_uint* @_ZN7ap_uintILi8EEaSERKS0_(%struct.ap_uint* %5, %struct.ap_uint* %7), !dbg !9342 ; [#uses=0 type=%struct.ap_uint*] [debug line = 21:9]
  %9 = getelementptr inbounds %struct.pixel_t* %4, i32 0, i32 1, !dbg !9342 ; [#uses=1 type=%struct.ap_uint*] [debug line = 21:9]
  %10 = load %struct.pixel_t** %3, align 8, !dbg !9342 ; [#uses=1 type=%struct.pixel_t*] [debug line = 21:9]
  %11 = getelementptr inbounds %struct.pixel_t* %10, i32 0, i32 1, !dbg !9342 ; [#uses=1 type=%struct.ap_uint*] [debug line = 21:9]
  %12 = call %struct.ap_uint* @_ZN7ap_uintILi8EEaSERKS0_(%struct.ap_uint* %9, %struct.ap_uint* %11), !dbg !9342 ; [#uses=0 type=%struct.ap_uint*] [debug line = 21:9]
  %13 = getelementptr inbounds %struct.pixel_t* %4, i32 0, i32 2, !dbg !9342 ; [#uses=1 type=%struct.ap_uint*] [debug line = 21:9]
  %14 = load %struct.pixel_t** %3, align 8, !dbg !9342 ; [#uses=1 type=%struct.pixel_t*] [debug line = 21:9]
  %15 = getelementptr inbounds %struct.pixel_t* %14, i32 0, i32 2, !dbg !9342 ; [#uses=1 type=%struct.ap_uint*] [debug line = 21:9]
  %16 = call %struct.ap_uint* @_ZN7ap_uintILi8EEaSERKS0_(%struct.ap_uint* %13, %struct.ap_uint* %15), !dbg !9342 ; [#uses=0 type=%struct.ap_uint*] [debug line = 21:9]
  ret %struct.pixel_t* %4, !dbg !9342             ; [debug line = 21:9]
}

; [#uses=6]
define linkonce_odr void @_ZN7ap_uintILi8EEC1Ei(%struct.ap_uint* %this, i32 %val) unnamed_addr nounwind uwtable inlinehint alwaysinline align 2 {
  %1 = alloca %struct.ap_uint*, align 8           ; [#uses=2 type=%struct.ap_uint**]
  %2 = alloca i32, align 4                        ; [#uses=2 type=i32*]
  store %struct.ap_uint* %this, %struct.ap_uint** %1, align 8
  call void @llvm.dbg.declare(metadata !{%struct.ap_uint** %1}, metadata !9344), !dbg !9345 ; [debug line = 252:43] [debug variable = this]
  store i32 %val, i32* %2, align 4
  call void @llvm.dbg.declare(metadata !{i32* %2}, metadata !9346), !dbg !9347 ; [debug line = 252:55] [debug variable = val]
  %3 = load %struct.ap_uint** %1                  ; [#uses=1 type=%struct.ap_uint*]
  %4 = load i32* %2, align 4, !dbg !9348          ; [#uses=1 type=i32] [debug line = 252:77]
  call void @_ZN7ap_uintILi8EEC2Ei(%struct.ap_uint* %3, i32 %4), !dbg !9348 ; [debug line = 252:77]
  ret void, !dbg !9348                            ; [debug line = 252:77]
}

; [#uses=2]
declare void @_ssdm_RegionEnd(...) nounwind

; [#uses=1]
define internal void @__cxx_global_var_init7() nounwind section ".text.startup" {
  call void @_ZN43ssdm_global_array_filter_hlspp0cppaplinecppC1Ev(%"class.std::ios_base::Init"* @_ZL21ssdm_global_array_ins)
  ret void
}

; [#uses=1]
define linkonce_odr void @_ZN43ssdm_global_array_filter_hlspp0cppaplinecppC1Ev(%"class.std::ios_base::Init"* %this) unnamed_addr nounwind uwtable inlinehint alwaysinline align 2 {
  %1 = alloca %"class.std::ios_base::Init"*, align 8 ; [#uses=2 type=%"class.std::ios_base::Init"**]
  store %"class.std::ios_base::Init"* %this, %"class.std::ios_base::Init"** %1, align 8
  call void @llvm.dbg.declare(metadata !{%"class.std::ios_base::Init"** %1}, metadata !9349), !dbg !9351 ; [debug line = 95:42] [debug variable = this]
  %2 = load %"class.std::ios_base::Init"** %1     ; [#uses=1 type=%"class.std::ios_base::Init"*]
  call void @_ZN43ssdm_global_array_filter_hlspp0cppaplinecppC2Ev(%"class.std::ios_base::Init"* %2), !dbg !9352 ; [debug line = 104:3]
  ret void, !dbg !9352                            ; [debug line = 104:3]
}

; [#uses=1]
define linkonce_odr void @_ZN7ap_uintILi8EEC2Ei(%struct.ap_uint* %this, i32 %val) unnamed_addr nounwind uwtable inlinehint alwaysinline align 2 {
  %1 = alloca %struct.ap_uint*, align 8           ; [#uses=2 type=%struct.ap_uint**]
  %2 = alloca i32, align 4                        ; [#uses=2 type=i32*]
  store %struct.ap_uint* %this, %struct.ap_uint** %1, align 8
  call void @llvm.dbg.declare(metadata !{%struct.ap_uint** %1}, metadata !9353), !dbg !9354 ; [debug line = 252:43] [debug variable = this]
  store i32 %val, i32* %2, align 4
  call void @llvm.dbg.declare(metadata !{i32* %2}, metadata !9355), !dbg !9356 ; [debug line = 252:55] [debug variable = val]
  %3 = load %struct.ap_uint** %1                  ; [#uses=2 type=%struct.ap_uint*]
  %4 = bitcast %struct.ap_uint* %3 to %struct.ap_int_base*, !dbg !9357 ; [#uses=1 type=%struct.ap_int_base*] [debug line = 252:60]
  call void @_ZN11ap_int_baseILi8ELb0ELb1EEC2Ev(%struct.ap_int_base* %4), !dbg !9357 ; [debug line = 252:60]
  %5 = load i32* %2, align 4, !dbg !9358          ; [#uses=1 type=i32] [debug line = 252:62]
  %6 = trunc i32 %5 to i8, !dbg !9358             ; [#uses=1 type=i8] [debug line = 252:62]
  %7 = bitcast %struct.ap_uint* %3 to %struct.ap_int_base*, !dbg !9358 ; [#uses=1 type=%struct.ap_int_base*] [debug line = 252:62]
  %8 = bitcast %struct.ap_int_base* %7 to %struct.ssdm_int.0*, !dbg !9358 ; [#uses=1 type=%struct.ssdm_int.0*] [debug line = 252:62]
  %9 = getelementptr inbounds %struct.ssdm_int.0* %8, i32 0, i32 0, !dbg !9358 ; [#uses=1 type=i8*] [debug line = 252:62]
  store i8 %6, i8* %9, align 1, !dbg !9358        ; [debug line = 252:62]
  ret void, !dbg !9360                            ; [debug line = 252:77]
}

; [#uses=2]
define linkonce_odr void @_ZN11ap_int_baseILi8ELb0ELb1EEC2Ev(%struct.ap_int_base* %this) unnamed_addr nounwind uwtable inlinehint alwaysinline align 2 {
  %1 = alloca %struct.ap_int_base*, align 8       ; [#uses=2 type=%struct.ap_int_base**]
  store %struct.ap_int_base* %this, %struct.ap_int_base** %1, align 8
  call void @llvm.dbg.declare(metadata !{%struct.ap_int_base** %1}, metadata !9361), !dbg !9363 ; [debug line = 1439:42] [debug variable = this]
  %2 = load %struct.ap_int_base** %1              ; [#uses=1 type=%struct.ap_int_base*]
  %3 = bitcast %struct.ap_int_base* %2 to %struct.ssdm_int.0*, !dbg !9364 ; [#uses=1 type=%struct.ssdm_int.0*] [debug line = 1439:56]
  call void @_ZN8ssdm_intILi8ELb0EEC2Ev(%struct.ssdm_int.0* %3), !dbg !9364 ; [debug line = 1439:56]
  ret void, !dbg !9365                            ; [debug line = 1445:4]
}

; [#uses=4]
define linkonce_odr void @_ZN8ssdm_intILi8ELb0EEC2Ev(%struct.ssdm_int.0* %this) unnamed_addr nounwind uwtable inlinehint alwaysinline align 2 {
  %1 = alloca %struct.ssdm_int.0*, align 8        ; [#uses=2 type=%struct.ssdm_int.0**]
  store %struct.ssdm_int.0* %this, %struct.ssdm_int.0** %1, align 8
  call void @llvm.dbg.declare(metadata !{%struct.ssdm_int.0** %1}, metadata !9367), !dbg !9369 ; [debug line = 10:0] [debug variable = this]
  %2 = load %struct.ssdm_int.0** %1               ; [#uses=0 type=%struct.ssdm_int.0*]
  ret void, !dbg !9370                            ; [debug line = 10:0]
}

; [#uses=1]
define linkonce_odr void @_ZN7ap_uintILi8EEC2ILi28ELi18EL9ap_q_mode5EL9ap_o_mode3ELi0EEERK8ap_fixedIXT_EXT0_EXT1_EXT2_EXT3_EE(%struct.ap_uint* %this, %struct.ap_fixed* %op) unnamed_addr nounwind uwtable inlinehint alwaysinline align 2 {
  %1 = alloca %struct.ap_uint*, align 8           ; [#uses=2 type=%struct.ap_uint**]
  %2 = alloca %struct.ap_fixed*, align 8          ; [#uses=2 type=%struct.ap_fixed**]
  %3 = alloca %struct.ap_fixed_base, align 4      ; [#uses=3 type=%struct.ap_fixed_base*]
  store %struct.ap_uint* %this, %struct.ap_uint** %1, align 8
  call void @llvm.dbg.declare(metadata !{%struct.ap_uint** %1}, metadata !9372), !dbg !9373 ; [debug line = 209:43] [debug variable = this]
  store %struct.ap_fixed* %op, %struct.ap_fixed** %2, align 8
  call void @llvm.dbg.declare(metadata !{%struct.ap_fixed** %2}, metadata !9374), !dbg !9375 ; [debug line = 209:107] [debug variable = op]
  %4 = load %struct.ap_uint** %1                  ; [#uses=1 type=%struct.ap_uint*]
  %5 = bitcast %struct.ap_uint* %4 to %struct.ap_int_base*, !dbg !9376 ; [#uses=1 type=%struct.ap_int_base*] [debug line = 210:80]
  %6 = load %struct.ap_fixed** %2, align 8, !dbg !9376 ; [#uses=1 type=%struct.ap_fixed*] [debug line = 210:80]
  %7 = bitcast %struct.ap_fixed* %6 to %struct.ap_fixed_base*, !dbg !9376 ; [#uses=2 type=%struct.ap_fixed_base*] [debug line = 210:80]
  %8 = bitcast %struct.ap_fixed_base* %3 to i8*, !dbg !9376 ; [#uses=0 type=i8*] [debug line = 210:80]
  %9 = bitcast %struct.ap_fixed_base* %7 to i8*, !dbg !9376 ; [#uses=0 type=i8*] [debug line = 210:80]
  %10 = getelementptr inbounds %struct.ap_fixed_base* %3, i32 0, i32 0, !dbg !9376 ; [#uses=1 type=%struct.ssdm_int*] [debug line = 210:80]
  %11 = getelementptr inbounds %struct.ap_fixed_base* %7, i32 0, i32 0, !dbg !9376 ; [#uses=1 type=%struct.ssdm_int*] [debug line = 210:80]
  %12 = getelementptr inbounds %struct.ssdm_int* %10, i32 0, i32 0, !dbg !9376 ; [#uses=1 type=i28*] [debug line = 210:80]
  %13 = getelementptr inbounds %struct.ssdm_int* %11, i32 0, i32 0, !dbg !9376 ; [#uses=1 type=i28*] [debug line = 210:80]
  %14 = load i28* %13, !dbg !9376                 ; [#uses=1 type=i28] [debug line = 210:80]
  store i28 %14, i28* %12, !dbg !9376             ; [debug line = 210:80]
  call void @_ZN11ap_int_baseILi8ELb0ELb1EEC2ILi28ELi18ELb1EL9ap_q_mode5EL9ap_o_mode3ELi0EEERK13ap_fixed_baseIXT_EXT0_EXT1_EXT2_EXT3_EXT4_EE(%struct.ap_int_base* %5, %struct.ap_fixed_base* %3), !dbg !9376 ; [debug line = 210:80]
  ret void, !dbg !9377                            ; [debug line = 210:81]
}

; [#uses=1]
define linkonce_odr void @_ZN11ap_int_baseILi8ELb0ELb1EEC2ILi28ELi18ELb1EL9ap_q_mode5EL9ap_o_mode3ELi0EEERK13ap_fixed_baseIXT_EXT0_EXT1_EXT2_EXT3_EXT4_EE(%struct.ap_int_base* %this, %struct.ap_fixed_base* %op) unnamed_addr nounwind uwtable inlinehint alwaysinline align 2 {
  %1 = alloca %struct.ap_int_base*, align 8       ; [#uses=2 type=%struct.ap_int_base**]
  %2 = alloca %struct.ap_fixed_base*, align 8     ; [#uses=2 type=%struct.ap_fixed_base**]
  %3 = alloca %struct.ap_int_base.12, align 4     ; [#uses=2 type=%struct.ap_int_base.12*]
  store %struct.ap_int_base* %this, %struct.ap_int_base** %1, align 8
  call void @llvm.dbg.declare(metadata !{%struct.ap_int_base** %1}, metadata !9379), !dbg !9380 ; [debug line = 1477:43] [debug variable = this]
  store %struct.ap_fixed_base* %op, %struct.ap_fixed_base** %2, align 8
  call void @llvm.dbg.declare(metadata !{%struct.ap_fixed_base** %2}, metadata !9381), !dbg !9382 ; [debug line = 1477:120] [debug variable = op]
  %4 = load %struct.ap_int_base** %1              ; [#uses=2 type=%struct.ap_int_base*]
  %5 = bitcast %struct.ap_int_base* %4 to %struct.ssdm_int.0*, !dbg !9383 ; [#uses=1 type=%struct.ssdm_int.0*] [debug line = 1477:124]
  call void @_ZN8ssdm_intILi8ELb0EEC2Ev(%struct.ssdm_int.0* %5), !dbg !9383 ; [debug line = 1477:124]
  %6 = load %struct.ap_fixed_base** %2, align 8, !dbg !9384 ; [#uses=1 type=%struct.ap_fixed_base*] [debug line = 1478:17]
  call void @_ZNK13ap_fixed_baseILi28ELi18ELb1EL9ap_q_mode5EL9ap_o_mode3ELi0EE14to_ap_int_baseEb(%struct.ap_int_base.12* sret %3, %struct.ap_fixed_base* %6, i1 zeroext true), !dbg !9384 ; [debug line = 1478:17]
  %7 = bitcast %struct.ap_int_base.12* %3 to %struct.ssdm_int.13*, !dbg !9384 ; [#uses=1 type=%struct.ssdm_int.13*] [debug line = 1478:17]
  %8 = getelementptr inbounds %struct.ssdm_int.13* %7, i32 0, i32 0, !dbg !9384 ; [#uses=1 type=i18*] [debug line = 1478:17]
  %9 = load i18* %8, align 4, !dbg !9384          ; [#uses=1 type=i18] [debug line = 1478:17]
  %10 = trunc i18 %9 to i8, !dbg !9384            ; [#uses=1 type=i8] [debug line = 1478:17]
  %11 = bitcast %struct.ap_int_base* %4 to %struct.ssdm_int.0*, !dbg !9384 ; [#uses=1 type=%struct.ssdm_int.0*] [debug line = 1478:17]
  %12 = getelementptr inbounds %struct.ssdm_int.0* %11, i32 0, i32 0, !dbg !9384 ; [#uses=1 type=i8*] [debug line = 1478:17]
  store i8 %10, i8* %12, align 1, !dbg !9384      ; [debug line = 1478:17]
  ret void, !dbg !9386                            ; [debug line = 1479:5]
}

; [#uses=1]
define linkonce_odr void @_ZNK13ap_fixed_baseILi28ELi18ELb1EL9ap_q_mode5EL9ap_o_mode3ELi0EE14to_ap_int_baseEb(%struct.ap_int_base.12* noalias sret %agg.result, %struct.ap_fixed_base* %this, i1 zeroext %Cnative) nounwind uwtable inlinehint alwaysinline align 2 {
  %1 = alloca %struct.ap_fixed_base*, align 8     ; [#uses=2 type=%struct.ap_fixed_base**]
  %2 = alloca i1, align 1                         ; [#uses=2 type=i1*]
  %__Result__ = alloca i28, align 4               ; [#uses=4 type=i28*]
  %__Val2__ = alloca i28, align 4                 ; [#uses=3 type=i28*]
  %__Result__1 = alloca i28, align 4              ; [#uses=4 type=i28*]
  %__Val2__2 = alloca i28, align 4                ; [#uses=3 type=i28*]
  %__Result__3 = alloca i28, align 4              ; [#uses=4 type=i28*]
  %__Val2__4 = alloca i28, align 4                ; [#uses=3 type=i28*]
  store %struct.ap_fixed_base* %this, %struct.ap_fixed_base** %1, align 8
  call void @llvm.dbg.declare(metadata !{%struct.ap_fixed_base** %1}, metadata !9387), !dbg !9389 ; [debug line = 1066:5] [debug variable = this]
  store i1 %Cnative, i1* %2, align 1
  call void @llvm.dbg.declare(metadata !{i1* %2}, metadata !9390), !dbg !9391 ; [debug line = 1066:25] [debug variable = Cnative]
  %3 = load %struct.ap_fixed_base** %1            ; [#uses=3 type=%struct.ap_fixed_base*]
  call void @llvm.dbg.declare(metadata !{%struct.ap_int_base.12* %agg.result}, metadata !9392), !dbg !9394 ; [debug line = 1069:60] [debug variable = ret]
  call void @_ZN11ap_int_baseILi18ELb1ELb1EEC1Ei(%struct.ap_int_base.12* %agg.result, i32 0), !dbg !9395 ; [debug line = 1069:66]
  call void @llvm.dbg.declare(metadata !{i28* %__Result__}, metadata !9396), !dbg !9398 ; [debug line = 1071:75] [debug variable = __Result__]
  store i28 0, i28* %__Result__, align 4, !dbg !9399 ; [debug line = 1071:89]
  call void @llvm.dbg.declare(metadata !{i28* %__Val2__}, metadata !9400), !dbg !9401 ; [debug line = 1071:142] [debug variable = __Val2__]
  %4 = bitcast %struct.ap_fixed_base* %3 to %struct.ssdm_int*, !dbg !9402 ; [#uses=1 type=%struct.ssdm_int*] [debug line = 1071:195]
  %5 = getelementptr inbounds %struct.ssdm_int* %4, i32 0, i32 0, !dbg !9402 ; [#uses=1 type=i28*] [debug line = 1071:195]
  %6 = load i28* %5, align 4, !dbg !9402          ; [#uses=1 type=i28] [debug line = 1071:195]
  store i28 %6, i28* %__Val2__, align 4, !dbg !9402 ; [debug line = 1071:195]
  %7 = bitcast i28* %__Result__ to i8*, !dbg !9403 ; [#uses=0 type=i8*] [debug line = 1071:197]
  %8 = bitcast i28* %__Val2__ to i8*, !dbg !9403  ; [#uses=0 type=i8*] [debug line = 1071:197]
  %9 = load i28* %__Val2__, !dbg !9403            ; [#uses=1 type=i28] [debug line = 1071:197]
  %10 = call i28 @llvm.part.select.i28(i28 %9, i32 10, i32 27), !dbg !9403 ; [#uses=1 type=i28] [debug line = 1071:197]
  store i28 %10, i28* %__Result__, !dbg !9403     ; [debug line = 1071:197]
  %11 = load i28* %__Result__, align 4, !dbg !9403 ; [#uses=1 type=i28] [debug line = 1071:197]
  %12 = trunc i28 %11 to i18, !dbg !9404          ; [#uses=1 type=i18] [debug line = 1071:0]
  %13 = bitcast %struct.ap_int_base.12* %agg.result to %struct.ssdm_int.13*, !dbg !9404 ; [#uses=1 type=%struct.ssdm_int.13*] [debug line = 1071:0]
  %14 = getelementptr inbounds %struct.ssdm_int.13* %13, i32 0, i32 0, !dbg !9404 ; [#uses=1 type=i18*] [debug line = 1071:0]
  store i18 %12, i18* %14, align 4, !dbg !9404    ; [debug line = 1071:0]
  %15 = load i1* %2, align 1, !dbg !9405          ; [#uses=1 type=i1] [debug line = 1081:9]
  br i1 %15, label %16, label %47, !dbg !9405     ; [debug line = 1081:9]

; <label>:16                                      ; preds = %0
  call void @llvm.dbg.declare(metadata !{i28* %__Result__1}, metadata !9406), !dbg !9409 ; [debug line = 1083:80] [debug variable = __Result__]
  store i28 0, i28* %__Result__1, align 4, !dbg !9410 ; [debug line = 1083:94]
  call void @llvm.dbg.declare(metadata !{i28* %__Val2__2}, metadata !9411), !dbg !9412 ; [debug line = 1083:147] [debug variable = __Val2__]
  %17 = bitcast %struct.ap_fixed_base* %3 to %struct.ssdm_int*, !dbg !9413 ; [#uses=1 type=%struct.ssdm_int*] [debug line = 1083:200]
  %18 = getelementptr inbounds %struct.ssdm_int* %17, i32 0, i32 0, !dbg !9413 ; [#uses=1 type=i28*] [debug line = 1083:200]
  %19 = load i28* %18, align 4, !dbg !9413        ; [#uses=1 type=i28] [debug line = 1083:200]
  store i28 %19, i28* %__Val2__2, align 4, !dbg !9413 ; [debug line = 1083:200]
  %20 = bitcast i28* %__Result__1 to i8*, !dbg !9414 ; [#uses=0 type=i8*] [debug line = 1083:202]
  %21 = bitcast i28* %__Val2__2 to i8*, !dbg !9414 ; [#uses=0 type=i8*] [debug line = 1083:202]
  %22 = load i28* %__Val2__2, !dbg !9414          ; [#uses=1 type=i28] [debug line = 1083:202]
  %23 = call i28 @llvm.part.select.i28(i28 %22, i32 27, i32 27), !dbg !9414 ; [#uses=1 type=i28] [debug line = 1083:202]
  store i28 %23, i28* %__Result__1, !dbg !9414    ; [debug line = 1083:202]
  %24 = load i28* %__Result__1, align 4, !dbg !9414 ; [#uses=1 type=i28] [debug line = 1083:202]
  %25 = sext i28 %24 to i32, !dbg !9414           ; [#uses=1 type=i32] [debug line = 1083:202]
  %26 = and i32 %25, 1, !dbg !9414                ; [#uses=1 type=i32] [debug line = 1083:202]
  %27 = icmp ne i32 %26, 0, !dbg !9414            ; [#uses=1 type=i1] [debug line = 1083:202]
  br i1 %27, label %28, label %46, !dbg !9415     ; [debug line = 1083:0]

; <label>:28                                      ; preds = %16
  call void @llvm.dbg.declare(metadata !{i28* %__Result__3}, metadata !9416), !dbg !9418 ; [debug line = 1085:93] [debug variable = __Result__]
  store i28 0, i28* %__Result__3, align 4, !dbg !9419 ; [debug line = 1085:107]
  call void @llvm.dbg.declare(metadata !{i28* %__Val2__4}, metadata !9420), !dbg !9421 ; [debug line = 1085:159] [debug variable = __Val2__]
  %29 = bitcast %struct.ap_fixed_base* %3 to %struct.ssdm_int*, !dbg !9422 ; [#uses=1 type=%struct.ssdm_int*] [debug line = 1085:211]
  %30 = getelementptr inbounds %struct.ssdm_int* %29, i32 0, i32 0, !dbg !9422 ; [#uses=1 type=i28*] [debug line = 1085:211]
  %31 = load i28* %30, align 4, !dbg !9422        ; [#uses=1 type=i28] [debug line = 1085:211]
  store i28 %31, i28* %__Val2__4, align 4, !dbg !9422 ; [debug line = 1085:211]
  %32 = bitcast i28* %__Result__3 to i8*, !dbg !9423 ; [#uses=0 type=i8*] [debug line = 1085:213]
  %33 = bitcast i28* %__Val2__4 to i8*, !dbg !9423 ; [#uses=0 type=i8*] [debug line = 1085:213]
  %34 = load i28* %__Val2__4, !dbg !9423          ; [#uses=1 type=i28] [debug line = 1085:213]
  %35 = call i28 @llvm.part.select.i28(i28 %34, i32 0, i32 9), !dbg !9423 ; [#uses=1 type=i28] [debug line = 1085:213]
  store i28 %35, i28* %__Result__3, !dbg !9423    ; [debug line = 1085:213]
  %36 = load i28* %__Result__3, align 4, !dbg !9423 ; [#uses=1 type=i28] [debug line = 1085:213]
  %37 = sext i28 %36 to i32, !dbg !9424           ; [#uses=1 type=i32] [debug line = 1085:0]
  %38 = icmp ne i32 %37, 0, !dbg !9424            ; [#uses=1 type=i1] [debug line = 1085:0]
  br i1 %38, label %39, label %46, !dbg !9424     ; [debug line = 1085:0]

; <label>:39                                      ; preds = %28
  %40 = bitcast %struct.ap_int_base.12* %agg.result to %struct.ssdm_int.13*, !dbg !9425 ; [#uses=1 type=%struct.ssdm_int.13*] [debug line = 1088:17]
  %41 = getelementptr inbounds %struct.ssdm_int.13* %40, i32 0, i32 0, !dbg !9425 ; [#uses=2 type=i18*] [debug line = 1088:17]
  %42 = load i18* %41, align 4, !dbg !9425        ; [#uses=1 type=i18] [debug line = 1088:17]
  %43 = sext i18 %42 to i32, !dbg !9425           ; [#uses=1 type=i32] [debug line = 1088:17]
  %44 = add nsw i32 %43, 1, !dbg !9425            ; [#uses=1 type=i32] [debug line = 1088:17]
  %45 = trunc i32 %44 to i18, !dbg !9425          ; [#uses=1 type=i18] [debug line = 1088:17]
  store i18 %45, i18* %41, align 4, !dbg !9425    ; [debug line = 1088:17]
  br label %46, !dbg !9425                        ; [debug line = 1088:17]

; <label>:46                                      ; preds = %39, %28, %16
  br label %48, !dbg !9426                        ; [debug line = 1089:9]

; <label>:47                                      ; preds = %0
  br label %48

; <label>:48                                      ; preds = %47, %46
  ret void, !dbg !9427                            ; [debug line = 1092:9]
}

; [#uses=1]
define linkonce_odr void @_ZN11ap_int_baseILi18ELb1ELb1EEC1Ei(%struct.ap_int_base.12* %this, i32 %op) unnamed_addr nounwind uwtable inlinehint alwaysinline align 2 {
  %1 = alloca %struct.ap_int_base.12*, align 8    ; [#uses=2 type=%struct.ap_int_base.12**]
  %2 = alloca i32, align 4                        ; [#uses=2 type=i32*]
  store %struct.ap_int_base.12* %this, %struct.ap_int_base.12** %1, align 8
  call void @llvm.dbg.declare(metadata !{%struct.ap_int_base.12** %1}, metadata !9428), !dbg !9430 ; [debug line = 1466:52] [debug variable = this]
  store i32 %op, i32* %2, align 4
  call void @llvm.dbg.declare(metadata !{i32* %2}, metadata !9431), !dbg !9432 ; [debug line = 1466:68] [debug variable = op]
  %3 = load %struct.ap_int_base.12** %1           ; [#uses=1 type=%struct.ap_int_base.12*]
  %4 = load i32* %2, align 4, !dbg !9433          ; [#uses=1 type=i32] [debug line = 1466:88]
  call void @_ZN11ap_int_baseILi18ELb1ELb1EEC2Ei(%struct.ap_int_base.12* %3, i32 %4), !dbg !9433 ; [debug line = 1466:88]
  ret void, !dbg !9433                            ; [debug line = 1466:88]
}

; [#uses=4]
declare i28 @llvm.part.select.i28(i28, i32, i32) nounwind readnone

; [#uses=1]
define linkonce_odr void @_ZN11ap_int_baseILi18ELb1ELb1EEC2Ei(%struct.ap_int_base.12* %this, i32 %op) unnamed_addr nounwind uwtable inlinehint alwaysinline align 2 {
  %1 = alloca %struct.ap_int_base.12*, align 8    ; [#uses=2 type=%struct.ap_int_base.12**]
  %2 = alloca i32, align 4                        ; [#uses=2 type=i32*]
  store %struct.ap_int_base.12* %this, %struct.ap_int_base.12** %1, align 8
  call void @llvm.dbg.declare(metadata !{%struct.ap_int_base.12** %1}, metadata !9434), !dbg !9435 ; [debug line = 1466:52] [debug variable = this]
  store i32 %op, i32* %2, align 4
  call void @llvm.dbg.declare(metadata !{i32* %2}, metadata !9436), !dbg !9437 ; [debug line = 1466:68] [debug variable = op]
  %3 = load %struct.ap_int_base.12** %1           ; [#uses=2 type=%struct.ap_int_base.12*]
  %4 = bitcast %struct.ap_int_base.12* %3 to %struct.ssdm_int.13*, !dbg !9438 ; [#uses=1 type=%struct.ssdm_int.13*] [debug line = 1466:72]
  call void @_ZN8ssdm_intILi18ELb1EEC2Ev(%struct.ssdm_int.13* %4), !dbg !9438 ; [debug line = 1466:72]
  %5 = load i32* %2, align 4, !dbg !9439          ; [#uses=1 type=i32] [debug line = 1466:74]
  %6 = trunc i32 %5 to i18, !dbg !9439            ; [#uses=1 type=i18] [debug line = 1466:74]
  %7 = bitcast %struct.ap_int_base.12* %3 to %struct.ssdm_int.13*, !dbg !9439 ; [#uses=1 type=%struct.ssdm_int.13*] [debug line = 1466:74]
  %8 = getelementptr inbounds %struct.ssdm_int.13* %7, i32 0, i32 0, !dbg !9439 ; [#uses=1 type=i18*] [debug line = 1466:74]
  store i18 %6, i18* %8, align 4, !dbg !9439      ; [debug line = 1466:74]
  ret void, !dbg !9441                            ; [debug line = 1466:88]
}

; [#uses=1]
define linkonce_odr void @_ZN8ssdm_intILi18ELb1EEC2Ev(%struct.ssdm_int.13* %this) unnamed_addr nounwind uwtable inlinehint alwaysinline align 2 {
  %1 = alloca %struct.ssdm_int.13*, align 8       ; [#uses=2 type=%struct.ssdm_int.13**]
  store %struct.ssdm_int.13* %this, %struct.ssdm_int.13** %1, align 8
  call void @llvm.dbg.declare(metadata !{%struct.ssdm_int.13** %1}, metadata !9442), !dbg !9444 ; [debug line = 20:137] [debug variable = this]
  %2 = load %struct.ssdm_int.13** %1              ; [#uses=0 type=%struct.ssdm_int.13*]
  ret void, !dbg !9445                            ; [debug line = 20:171]
}

; [#uses=1]
define linkonce_odr zeroext i1 @_ZNK13ap_fixed_baseILi28ELi18ELb1EL9ap_q_mode5EL9ap_o_mode3ELi0EEgtILi32ELi32ELb1ELS0_5ELS1_3ELi0EEEbRKS_IXT_EXT0_EXT1_EXT2_EXT3_EXT4_EE(%struct.ap_fixed_base* %this, %struct.ap_fixed_base.14* %op2) nounwind uwtable inlinehint alwaysinline align 2 {
  %1 = alloca %struct.ap_fixed_base*, align 8     ; [#uses=2 type=%struct.ap_fixed_base**]
  %2 = alloca %struct.ap_fixed_base.14*, align 8  ; [#uses=2 type=%struct.ap_fixed_base.14**]
  %_AP_F = alloca i32, align 4                    ; [#uses=1 type=i32*]
  %F2 = alloca i32, align 4                       ; [#uses=1 type=i32*]
  %3 = alloca %struct.ap_fixed_base.16, align 8   ; [#uses=2 type=%struct.ap_fixed_base.16*]
  store %struct.ap_fixed_base* %this, %struct.ap_fixed_base** %1, align 8
  call void @llvm.dbg.declare(metadata !{%struct.ap_fixed_base** %1}, metadata !9447), !dbg !9448 ; [debug line = 1961:142] [debug variable = this]
  store %struct.ap_fixed_base.14* %op2, %struct.ap_fixed_base.14** %2, align 8
  call void @llvm.dbg.declare(metadata !{%struct.ap_fixed_base.14** %2}, metadata !9449), !dbg !9450 ; [debug line = 1961:219] [debug variable = op2]
  %4 = load %struct.ap_fixed_base** %1            ; [#uses=1 type=%struct.ap_fixed_base*]
  call void @llvm.dbg.declare(metadata !{i32* %_AP_F}, metadata !9451), !dbg !9453 ; [debug line = 1961:242] [debug variable = _AP_F]
  store i32 10, i32* %_AP_F, align 4, !dbg !9454  ; [debug line = 1961:0]
  call void @llvm.dbg.declare(metadata !{i32* %F2}, metadata !9455), !dbg !9454 ; [debug line = 1961:0] [debug variable = F2]
  store i32 0, i32* %F2, align 4, !dbg !9454      ; [debug line = 1961:0]
  %5 = bitcast %struct.ap_fixed_base* %4 to %struct.ssdm_int*, !dbg !9454 ; [#uses=1 type=%struct.ssdm_int*] [debug line = 1961:0]
  %6 = getelementptr inbounds %struct.ssdm_int* %5, i32 0, i32 0, !dbg !9454 ; [#uses=1 type=i28*] [debug line = 1961:0]
  %7 = load i28* %6, align 4, !dbg !9454          ; [#uses=1 type=i28] [debug line = 1961:0]
  %8 = sext i28 %7 to i42, !dbg !9454             ; [#uses=1 type=i42] [debug line = 1961:0]
  %9 = load %struct.ap_fixed_base.14** %2, align 8, !dbg !9454 ; [#uses=1 type=%struct.ap_fixed_base.14*] [debug line = 1961:0]
  call void @_ZN13ap_fixed_baseILi42ELi32ELb1EL9ap_q_mode5EL9ap_o_mode3ELi0EEC1ILi32ELi32ELb1ELS0_5ELS1_3ELi0EEERKS_IXT_EXT0_EXT1_EXT2_EXT3_EXT4_EE(%struct.ap_fixed_base.16* %3, %struct.ap_fixed_base.14* %9), !dbg !9454 ; [debug line = 1961:0]
  %10 = bitcast %struct.ap_fixed_base.16* %3 to %struct.ssdm_int.17*, !dbg !9454 ; [#uses=1 type=%struct.ssdm_int.17*] [debug line = 1961:0]
  %11 = getelementptr inbounds %struct.ssdm_int.17* %10, i32 0, i32 0, !dbg !9454 ; [#uses=1 type=i42*] [debug line = 1961:0]
  %12 = load i42* %11, align 8, !dbg !9454        ; [#uses=1 type=i42] [debug line = 1961:0]
  %13 = icmp sgt i42 %8, %12, !dbg !9454          ; [#uses=1 type=i1] [debug line = 1961:0]
  ret i1 %13, !dbg !9454                          ; [debug line = 1961:0]
}

; [#uses=3]
define linkonce_odr void @_ZN13ap_fixed_baseILi32ELi32ELb1EL9ap_q_mode5EL9ap_o_mode3ELi0EEC1Ei(%struct.ap_fixed_base.14* %this, i32 %i_op) unnamed_addr nounwind uwtable inlinehint alwaysinline align 2 {
  %1 = alloca %struct.ap_fixed_base.14*, align 8  ; [#uses=2 type=%struct.ap_fixed_base.14**]
  %2 = alloca i32, align 4                        ; [#uses=2 type=i32*]
  store %struct.ap_fixed_base.14* %this, %struct.ap_fixed_base.14** %1, align 8
  call void @llvm.dbg.declare(metadata !{%struct.ap_fixed_base.14** %1}, metadata !9456), !dbg !9458 ; [debug line = 2238:92] [debug variable = this]
  store i32 %i_op, i32* %2, align 4
  call void @llvm.dbg.declare(metadata !{i32* %2}, metadata !9459), !dbg !9460 ; [debug line = 2238:117] [debug variable = i_op]
  %3 = load %struct.ap_fixed_base.14** %1         ; [#uses=1 type=%struct.ap_fixed_base.14*]
  %4 = load i32* %2, align 4, !dbg !9461          ; [#uses=1 type=i32] [debug line = 2238:141]
  call void @_ZN13ap_fixed_baseILi32ELi32ELb1EL9ap_q_mode5EL9ap_o_mode3ELi0EEC2Ei(%struct.ap_fixed_base.14* %3, i32 %4), !dbg !9461 ; [debug line = 2238:141]
  ret void, !dbg !9461                            ; [debug line = 2238:141]
}

; [#uses=1]
define linkonce_odr void @_ZN13ap_fixed_baseILi32ELi32ELb1EL9ap_q_mode5EL9ap_o_mode3ELi0EEC2Ei(%struct.ap_fixed_base.14* %this, i32 %i_op) unnamed_addr nounwind uwtable inlinehint alwaysinline align 2 {
  %1 = alloca %struct.ap_fixed_base.14*, align 8  ; [#uses=2 type=%struct.ap_fixed_base.14**]
  %2 = alloca i32, align 4                        ; [#uses=2 type=i32*]
  store %struct.ap_fixed_base.14* %this, %struct.ap_fixed_base.14** %1, align 8
  call void @llvm.dbg.declare(metadata !{%struct.ap_fixed_base.14** %1}, metadata !9462), !dbg !9463 ; [debug line = 2238:92] [debug variable = this]
  store i32 %i_op, i32* %2, align 4
  call void @llvm.dbg.declare(metadata !{i32* %2}, metadata !9464), !dbg !9465 ; [debug line = 2238:117] [debug variable = i_op]
  %3 = load %struct.ap_fixed_base.14** %1         ; [#uses=2 type=%struct.ap_fixed_base.14*]
  %4 = bitcast %struct.ap_fixed_base.14* %3 to %struct.ssdm_int.15*, !dbg !9466 ; [#uses=1 type=%struct.ssdm_int.15*] [debug line = 2238:123]
  call void @_ZN8ssdm_intILi32ELb1EEC2Ev(%struct.ssdm_int.15* %4), !dbg !9466 ; [debug line = 2238:123]
  %5 = load i32* %2, align 4, !dbg !9467          ; [#uses=1 type=i32] [debug line = 2238:125]
  %6 = bitcast %struct.ap_fixed_base.14* %3 to %struct.ssdm_int.15*, !dbg !9467 ; [#uses=1 type=%struct.ssdm_int.15*] [debug line = 2238:125]
  %7 = getelementptr inbounds %struct.ssdm_int.15* %6, i32 0, i32 0, !dbg !9467 ; [#uses=1 type=i32*] [debug line = 2238:125]
  store i32 %5, i32* %7, align 4, !dbg !9467      ; [debug line = 2238:125]
  ret void, !dbg !9469                            ; [debug line = 2238:141]
}

; [#uses=2]
define linkonce_odr void @_ZN8ssdm_intILi32ELb1EEC2Ev(%struct.ssdm_int.15* %this) unnamed_addr nounwind uwtable inlinehint alwaysinline align 2 {
  %1 = alloca %struct.ssdm_int.15*, align 8       ; [#uses=2 type=%struct.ssdm_int.15**]
  store %struct.ssdm_int.15* %this, %struct.ssdm_int.15** %1, align 8
  call void @llvm.dbg.declare(metadata !{%struct.ssdm_int.15** %1}, metadata !9470), !dbg !9472 ; [debug line = 34:137] [debug variable = this]
  %2 = load %struct.ssdm_int.15** %1              ; [#uses=0 type=%struct.ssdm_int.15*]
  ret void, !dbg !9473                            ; [debug line = 34:171]
}

; [#uses=2]
define linkonce_odr void @_ZN13ap_fixed_baseILi42ELi32ELb1EL9ap_q_mode5EL9ap_o_mode3ELi0EEC1ILi32ELi32ELb1ELS0_5ELS1_3ELi0EEERKS_IXT_EXT0_EXT1_EXT2_EXT3_EXT4_EE(%struct.ap_fixed_base.16* %this, %struct.ap_fixed_base.14* %op) unnamed_addr nounwind uwtable align 2 {
  %1 = alloca %struct.ap_fixed_base.16*, align 8  ; [#uses=2 type=%struct.ap_fixed_base.16**]
  %2 = alloca %struct.ap_fixed_base.14*, align 8  ; [#uses=2 type=%struct.ap_fixed_base.14**]
  store %struct.ap_fixed_base.16* %this, %struct.ap_fixed_base.16** %1, align 8
  call void @llvm.dbg.declare(metadata !{%struct.ap_fixed_base.16** %1}, metadata !9475), !dbg !9477 ; [debug line = 663:31] [debug variable = this]
  store %struct.ap_fixed_base.14* %op, %struct.ap_fixed_base.14** %2, align 8
  call void @llvm.dbg.declare(metadata !{%struct.ap_fixed_base.14** %2}, metadata !9478), !dbg !9479 ; [debug line = 663:111] [debug variable = op]
  %3 = load %struct.ap_fixed_base.16** %1         ; [#uses=1 type=%struct.ap_fixed_base.16*]
  %4 = load %struct.ap_fixed_base.14** %2, !dbg !9480 ; [#uses=1 type=%struct.ap_fixed_base.14*] [debug line = 773:5]
  call void @_ZN13ap_fixed_baseILi42ELi32ELb1EL9ap_q_mode5EL9ap_o_mode3ELi0EEC2ILi32ELi32ELb1ELS0_5ELS1_3ELi0EEERKS_IXT_EXT0_EXT1_EXT2_EXT3_EXT4_EE(%struct.ap_fixed_base.16* %3, %struct.ap_fixed_base.14* %4), !dbg !9480 ; [debug line = 773:5]
  ret void, !dbg !9480                            ; [debug line = 773:5]
}

; [#uses=1]
define linkonce_odr void @_ZN13ap_fixed_baseILi42ELi32ELb1EL9ap_q_mode5EL9ap_o_mode3ELi0EEC2ILi32ELi32ELb1ELS0_5ELS1_3ELi0EEERKS_IXT_EXT0_EXT1_EXT2_EXT3_EXT4_EE(%struct.ap_fixed_base.16* %this, %struct.ap_fixed_base.14* %op) unnamed_addr nounwind uwtable align 2 {
  %1 = alloca %struct.ap_fixed_base.16*, align 8  ; [#uses=2 type=%struct.ap_fixed_base.16**]
  %2 = alloca %struct.ap_fixed_base.14*, align 8  ; [#uses=3 type=%struct.ap_fixed_base.14**]
  %carry = alloca i1, align 1                     ; [#uses=1 type=i1*]
  %sh_amt = alloca i32, align 4                   ; [#uses=3 type=i32*]
  %signbit = alloca i1, align 1                   ; [#uses=2 type=i1*]
  %__Result__ = alloca i32, align 4               ; [#uses=4 type=i32*]
  %__Val2__ = alloca i32, align 4                 ; [#uses=3 type=i32*]
  %isneg = alloca i1, align 1                     ; [#uses=1 type=i1*]
  store %struct.ap_fixed_base.16* %this, %struct.ap_fixed_base.16** %1, align 8
  call void @llvm.dbg.declare(metadata !{%struct.ap_fixed_base.16** %1}, metadata !9481), !dbg !9482 ; [debug line = 663:31] [debug variable = this]
  store %struct.ap_fixed_base.14* %op, %struct.ap_fixed_base.14** %2, align 8
  call void @llvm.dbg.declare(metadata !{%struct.ap_fixed_base.14** %2}, metadata !9483), !dbg !9484 ; [debug line = 663:111] [debug variable = op]
  %3 = load %struct.ap_fixed_base.16** %1         ; [#uses=5 type=%struct.ap_fixed_base.16*]
  %4 = bitcast %struct.ap_fixed_base.16* %3 to %struct.ssdm_int.17*, !dbg !9485 ; [#uses=1 type=%struct.ssdm_int.17*] [debug line = 663:115]
  call void @_ZN8ssdm_intILi42ELb1EEC2Ev(%struct.ssdm_int.17* %4), !dbg !9485 ; [debug line = 663:115]
  call void (...)* @_ssdm_InlineSelf(i32 0, i8* getelementptr inbounds ([1 x i8]* @.str, i32 0, i32 0)) nounwind, !dbg !9486 ; [debug line = 665:1]
  call void @llvm.dbg.declare(metadata !{i1* %carry}, metadata !9488), !dbg !9489 ; [debug line = 669:14] [debug variable = carry]
  store i1 false, i1* %carry, align 1, !dbg !9490 ; [debug line = 669:27]
  call void @llvm.dbg.declare(metadata !{i32* %sh_amt}, metadata !9491), !dbg !9492 ; [debug line = 674:18] [debug variable = sh_amt]
  store i32 10, i32* %sh_amt, align 4, !dbg !9493 ; [debug line = 674:65]
  call void @llvm.dbg.declare(metadata !{i1* %signbit}, metadata !9494), !dbg !9495 ; [debug line = 675:14] [debug variable = signbit]
  call void @llvm.dbg.declare(metadata !{i32* %__Result__}, metadata !9496), !dbg !9498 ; [debug line = 675:116] [debug variable = __Result__]
  store i32 0, i32* %__Result__, align 4, !dbg !9499 ; [debug line = 675:130]
  call void @llvm.dbg.declare(metadata !{i32* %__Val2__}, metadata !9500), !dbg !9501 ; [debug line = 675:221] [debug variable = __Val2__]
  %5 = load %struct.ap_fixed_base.14** %2, align 8, !dbg !9502 ; [#uses=1 type=%struct.ap_fixed_base.14*] [debug line = 675:0]
  %6 = bitcast %struct.ap_fixed_base.14* %5 to %struct.ssdm_int.15*, !dbg !9502 ; [#uses=1 type=%struct.ssdm_int.15*] [debug line = 675:0]
  %7 = getelementptr inbounds %struct.ssdm_int.15* %6, i32 0, i32 0, !dbg !9502 ; [#uses=1 type=i32*] [debug line = 675:0]
  %8 = load i32* %7, align 4, !dbg !9502          ; [#uses=1 type=i32] [debug line = 675:0]
  store i32 %8, i32* %__Val2__, align 4, !dbg !9502 ; [debug line = 675:0]
  %9 = bitcast i32* %__Result__ to i8*, !dbg !9502 ; [#uses=0 type=i8*] [debug line = 675:0]
  %10 = bitcast i32* %__Val2__ to i8*, !dbg !9502 ; [#uses=0 type=i8*] [debug line = 675:0]
  %11 = load i32* %__Val2__, !dbg !9502           ; [#uses=1 type=i32] [debug line = 675:0]
  %12 = call i32 @llvm.part.select.i32(i32 %11, i32 31, i32 31), !dbg !9502 ; [#uses=1 type=i32] [debug line = 675:0]
  store i32 %12, i32* %__Result__, !dbg !9502     ; [debug line = 675:0]
  %13 = load i32* %__Result__, align 4, !dbg !9502 ; [#uses=1 type=i32] [debug line = 675:0]
  %14 = and i32 %13, 1, !dbg !9502                ; [#uses=1 type=i32] [debug line = 675:0]
  %15 = icmp ne i32 %14, 0, !dbg !9502            ; [#uses=1 type=i1] [debug line = 675:0]
  store i1 %15, i1* %signbit, align 1, !dbg !9502 ; [debug line = 675:0]
  call void @llvm.dbg.declare(metadata !{i1* %isneg}, metadata !9503), !dbg !9504 ; [debug line = 677:14] [debug variable = isneg]
  %16 = load i1* %signbit, align 1, !dbg !9505    ; [#uses=1 type=i1] [debug line = 677:39]
  br i1 %16, label %17, label %18, !dbg !9505     ; [debug line = 677:39]

; <label>:17                                      ; preds = %0
  br label %18

; <label>:18                                      ; preds = %17, %0
  %19 = phi i1 [ false, %0 ], [ true, %17 ]       ; [#uses=1 type=i1]
  store i1 %19, i1* %isneg, align 1
  %20 = load %struct.ap_fixed_base.14** %2, align 8, !dbg !9506 ; [#uses=1 type=%struct.ap_fixed_base.14*] [debug line = 701:13]
  %21 = bitcast %struct.ap_fixed_base.14* %20 to %struct.ssdm_int.15*, !dbg !9506 ; [#uses=1 type=%struct.ssdm_int.15*] [debug line = 701:13]
  %22 = getelementptr inbounds %struct.ssdm_int.15* %21, i32 0, i32 0, !dbg !9506 ; [#uses=1 type=i32*] [debug line = 701:13]
  %23 = load i32* %22, align 4, !dbg !9506        ; [#uses=1 type=i32] [debug line = 701:13]
  %24 = sext i32 %23 to i42, !dbg !9506           ; [#uses=1 type=i42] [debug line = 701:13]
  %25 = bitcast %struct.ap_fixed_base.16* %3 to %struct.ssdm_int.17*, !dbg !9506 ; [#uses=1 type=%struct.ssdm_int.17*] [debug line = 701:13]
  %26 = getelementptr inbounds %struct.ssdm_int.17* %25, i32 0, i32 0, !dbg !9506 ; [#uses=1 type=i42*] [debug line = 701:13]
  store i42 %24, i42* %26, align 8, !dbg !9506    ; [debug line = 701:13]
  %27 = load i32* %sh_amt, align 4, !dbg !9508    ; [#uses=1 type=i32] [debug line = 702:13]
  %28 = icmp ult i32 %27, 42, !dbg !9508          ; [#uses=1 type=i1] [debug line = 702:13]
  br i1 %28, label %29, label %38, !dbg !9508     ; [debug line = 702:13]

; <label>:29                                      ; preds = %18
  %30 = bitcast %struct.ap_fixed_base.16* %3 to %struct.ssdm_int.17*, !dbg !9509 ; [#uses=1 type=%struct.ssdm_int.17*] [debug line = 703:17]
  %31 = getelementptr inbounds %struct.ssdm_int.17* %30, i32 0, i32 0, !dbg !9509 ; [#uses=1 type=i42*] [debug line = 703:17]
  %32 = load i42* %31, align 8, !dbg !9509        ; [#uses=1 type=i42] [debug line = 703:17]
  %33 = load i32* %sh_amt, align 4, !dbg !9509    ; [#uses=1 type=i32] [debug line = 703:17]
  %34 = zext i32 %33 to i42, !dbg !9509           ; [#uses=1 type=i42] [debug line = 703:17]
  %35 = shl i42 %32, %34, !dbg !9509              ; [#uses=1 type=i42] [debug line = 703:17]
  %36 = bitcast %struct.ap_fixed_base.16* %3 to %struct.ssdm_int.17*, !dbg !9509 ; [#uses=1 type=%struct.ssdm_int.17*] [debug line = 703:17]
  %37 = getelementptr inbounds %struct.ssdm_int.17* %36, i32 0, i32 0, !dbg !9509 ; [#uses=1 type=i42*] [debug line = 703:17]
  store i42 %35, i42* %37, align 8, !dbg !9509    ; [debug line = 703:17]
  br label %41, !dbg !9509                        ; [debug line = 703:17]

; <label>:38                                      ; preds = %18
  %39 = bitcast %struct.ap_fixed_base.16* %3 to %struct.ssdm_int.17*, !dbg !9510 ; [#uses=1 type=%struct.ssdm_int.17*] [debug line = 705:17]
  %40 = getelementptr inbounds %struct.ssdm_int.17* %39, i32 0, i32 0, !dbg !9510 ; [#uses=1 type=i42*] [debug line = 705:17]
  store i42 0, i42* %40, align 8, !dbg !9510      ; [debug line = 705:17]
  br label %41

; <label>:41                                      ; preds = %38, %29
  ret void, !dbg !9511                            ; [debug line = 773:5]
}

; [#uses=1]
define linkonce_odr void @_ZN8ssdm_intILi42ELb1EEC2Ev(%struct.ssdm_int.17* %this) unnamed_addr nounwind uwtable inlinehint alwaysinline align 2 {
  %1 = alloca %struct.ssdm_int.17*, align 8       ; [#uses=2 type=%struct.ssdm_int.17**]
  store %struct.ssdm_int.17* %this, %struct.ssdm_int.17** %1, align 8
  call void @llvm.dbg.declare(metadata !{%struct.ssdm_int.17** %1}, metadata !9512), !dbg !9514 ; [debug line = 44:137] [debug variable = this]
  %2 = load %struct.ssdm_int.17** %1              ; [#uses=0 type=%struct.ssdm_int.17*]
  ret void, !dbg !9515                            ; [debug line = 44:171]
}

; [#uses=2]
declare i32 @llvm.part.select.i32(i32, i32, i32) nounwind readnone

; [#uses=1]
define linkonce_odr zeroext i1 @_ZNK13ap_fixed_baseILi28ELi18ELb1EL9ap_q_mode5EL9ap_o_mode3ELi0EEltILi32ELi32ELb1ELS0_5ELS1_3ELi0EEEbRKS_IXT_EXT0_EXT1_EXT2_EXT3_EXT4_EE(%struct.ap_fixed_base* %this, %struct.ap_fixed_base.14* %op2) nounwind uwtable inlinehint alwaysinline align 2 {
  %1 = alloca %struct.ap_fixed_base*, align 8     ; [#uses=2 type=%struct.ap_fixed_base**]
  %2 = alloca %struct.ap_fixed_base.14*, align 8  ; [#uses=2 type=%struct.ap_fixed_base.14**]
  %_AP_F = alloca i32, align 4                    ; [#uses=1 type=i32*]
  %F2 = alloca i32, align 4                       ; [#uses=1 type=i32*]
  %3 = alloca %struct.ap_fixed_base.16, align 8   ; [#uses=2 type=%struct.ap_fixed_base.16*]
  store %struct.ap_fixed_base* %this, %struct.ap_fixed_base** %1, align 8
  call void @llvm.dbg.declare(metadata !{%struct.ap_fixed_base** %1}, metadata !9517), !dbg !9518 ; [debug line = 1963:142] [debug variable = this]
  store %struct.ap_fixed_base.14* %op2, %struct.ap_fixed_base.14** %2, align 8
  call void @llvm.dbg.declare(metadata !{%struct.ap_fixed_base.14** %2}, metadata !9519), !dbg !9520 ; [debug line = 1963:219] [debug variable = op2]
  %4 = load %struct.ap_fixed_base** %1            ; [#uses=1 type=%struct.ap_fixed_base*]
  call void @llvm.dbg.declare(metadata !{i32* %_AP_F}, metadata !9521), !dbg !9523 ; [debug line = 1963:242] [debug variable = _AP_F]
  store i32 10, i32* %_AP_F, align 4, !dbg !9524  ; [debug line = 1963:0]
  call void @llvm.dbg.declare(metadata !{i32* %F2}, metadata !9525), !dbg !9524 ; [debug line = 1963:0] [debug variable = F2]
  store i32 0, i32* %F2, align 4, !dbg !9524      ; [debug line = 1963:0]
  %5 = bitcast %struct.ap_fixed_base* %4 to %struct.ssdm_int*, !dbg !9524 ; [#uses=1 type=%struct.ssdm_int*] [debug line = 1963:0]
  %6 = getelementptr inbounds %struct.ssdm_int* %5, i32 0, i32 0, !dbg !9524 ; [#uses=1 type=i28*] [debug line = 1963:0]
  %7 = load i28* %6, align 4, !dbg !9524          ; [#uses=1 type=i28] [debug line = 1963:0]
  %8 = sext i28 %7 to i42, !dbg !9524             ; [#uses=1 type=i42] [debug line = 1963:0]
  %9 = load %struct.ap_fixed_base.14** %2, align 8, !dbg !9524 ; [#uses=1 type=%struct.ap_fixed_base.14*] [debug line = 1963:0]
  call void @_ZN13ap_fixed_baseILi42ELi32ELb1EL9ap_q_mode5EL9ap_o_mode3ELi0EEC1ILi32ELi32ELb1ELS0_5ELS1_3ELi0EEERKS_IXT_EXT0_EXT1_EXT2_EXT3_EXT4_EE(%struct.ap_fixed_base.16* %3, %struct.ap_fixed_base.14* %9), !dbg !9524 ; [debug line = 1963:0]
  %10 = bitcast %struct.ap_fixed_base.16* %3 to %struct.ssdm_int.17*, !dbg !9524 ; [#uses=1 type=%struct.ssdm_int.17*] [debug line = 1963:0]
  %11 = getelementptr inbounds %struct.ssdm_int.17* %10, i32 0, i32 0, !dbg !9524 ; [#uses=1 type=i42*] [debug line = 1963:0]
  %12 = load i42* %11, align 8, !dbg !9524        ; [#uses=1 type=i42] [debug line = 1963:0]
  %13 = icmp slt i42 %8, %12, !dbg !9524          ; [#uses=1 type=i1] [debug line = 1963:0]
  ret i1 %13, !dbg !9524                          ; [debug line = 1963:0]
}

; [#uses=2]
define linkonce_odr %struct.ap_fixed_base* @_ZN13ap_fixed_baseILi28ELi18ELb1EL9ap_q_mode5EL9ap_o_mode3ELi0EEaSERKS2_(%struct.ap_fixed_base* %this, %struct.ap_fixed_base* %op) nounwind uwtable inlinehint alwaysinline align 2 {
  %1 = alloca %struct.ap_fixed_base*, align 8     ; [#uses=2 type=%struct.ap_fixed_base**]
  %2 = alloca %struct.ap_fixed_base*, align 8     ; [#uses=2 type=%struct.ap_fixed_base**]
  store %struct.ap_fixed_base* %this, %struct.ap_fixed_base** %1, align 8
  call void @llvm.dbg.declare(metadata !{%struct.ap_fixed_base** %1}, metadata !9526), !dbg !9527 ; [debug line = 1022:58] [debug variable = this]
  store %struct.ap_fixed_base* %op, %struct.ap_fixed_base** %2, align 8
  call void @llvm.dbg.declare(metadata !{%struct.ap_fixed_base** %2}, metadata !9528), !dbg !9529 ; [debug line = 1023:63] [debug variable = op]
  %3 = load %struct.ap_fixed_base** %1            ; [#uses=2 type=%struct.ap_fixed_base*]
  %4 = load %struct.ap_fixed_base** %2, align 8, !dbg !9530 ; [#uses=1 type=%struct.ap_fixed_base*] [debug line = 1025:9]
  %5 = bitcast %struct.ap_fixed_base* %4 to %struct.ssdm_int*, !dbg !9530 ; [#uses=1 type=%struct.ssdm_int*] [debug line = 1025:9]
  %6 = getelementptr inbounds %struct.ssdm_int* %5, i32 0, i32 0, !dbg !9530 ; [#uses=1 type=i28*] [debug line = 1025:9]
  %7 = load i28* %6, align 4, !dbg !9530          ; [#uses=1 type=i28] [debug line = 1025:9]
  %8 = bitcast %struct.ap_fixed_base* %3 to %struct.ssdm_int*, !dbg !9530 ; [#uses=1 type=%struct.ssdm_int*] [debug line = 1025:9]
  %9 = getelementptr inbounds %struct.ssdm_int* %8, i32 0, i32 0, !dbg !9530 ; [#uses=1 type=i28*] [debug line = 1025:9]
  store i28 %7, i28* %9, align 4, !dbg !9530      ; [debug line = 1025:9]
  ret %struct.ap_fixed_base* %3, !dbg !9532       ; [debug line = 1026:9]
}

; [#uses=1]
define linkonce_odr void @_ZN13ap_fixed_baseILi28ELi18ELb1EL9ap_q_mode5EL9ap_o_mode3ELi0EEC1ILi37ELi27ELb1ELS0_5ELS1_3ELi0EEERKS_IXT_EXT0_EXT1_EXT2_EXT3_EXT4_EE(%struct.ap_fixed_base* %this, %struct.ap_fixed_base.18* %op) unnamed_addr nounwind uwtable align 2 {
  %1 = alloca %struct.ap_fixed_base*, align 8     ; [#uses=2 type=%struct.ap_fixed_base**]
  %2 = alloca %struct.ap_fixed_base.18*, align 8  ; [#uses=2 type=%struct.ap_fixed_base.18**]
  store %struct.ap_fixed_base* %this, %struct.ap_fixed_base** %1, align 8
  call void @llvm.dbg.declare(metadata !{%struct.ap_fixed_base** %1}, metadata !9533), !dbg !9534 ; [debug line = 663:31] [debug variable = this]
  store %struct.ap_fixed_base.18* %op, %struct.ap_fixed_base.18** %2, align 8
  call void @llvm.dbg.declare(metadata !{%struct.ap_fixed_base.18** %2}, metadata !9535), !dbg !9536 ; [debug line = 663:111] [debug variable = op]
  %3 = load %struct.ap_fixed_base** %1            ; [#uses=1 type=%struct.ap_fixed_base*]
  %4 = load %struct.ap_fixed_base.18** %2, !dbg !9537 ; [#uses=1 type=%struct.ap_fixed_base.18*] [debug line = 773:5]
  call void @_ZN13ap_fixed_baseILi28ELi18ELb1EL9ap_q_mode5EL9ap_o_mode3ELi0EEC2ILi37ELi27ELb1ELS0_5ELS1_3ELi0EEERKS_IXT_EXT0_EXT1_EXT2_EXT3_EXT4_EE(%struct.ap_fixed_base* %3, %struct.ap_fixed_base.18* %4), !dbg !9537 ; [debug line = 773:5]
  ret void, !dbg !9537                            ; [debug line = 773:5]
}

; [#uses=1]
define linkonce_odr void @_ZNK13ap_fixed_baseILi28ELi18ELb1EL9ap_q_mode5EL9ap_o_mode3ELi0EEplILi36ELi26ELb1ELS0_5ELS1_3ELi0EEENS2_5RTypeIXT_EXT0_EXT1_EE4plusERKS_IXT_EXT0_EXT1_EXT2_EXT3_EXT4_EE(%struct.ap_fixed_base.18* noalias sret %agg.result, %struct.ap_fixed_base* %this, %struct.ap_fixed_base.1* %op2) nounwind uwtable inlinehint alwaysinline align 2 {
  %1 = alloca %struct.ap_fixed_base*, align 8     ; [#uses=2 type=%struct.ap_fixed_base**]
  %2 = alloca %struct.ap_fixed_base.1*, align 8   ; [#uses=2 type=%struct.ap_fixed_base.1**]
  %lhs = alloca %struct.ap_fixed_base.18, align 8 ; [#uses=2 type=%struct.ap_fixed_base.18*]
  %rhs = alloca %struct.ap_fixed_base.18, align 8 ; [#uses=2 type=%struct.ap_fixed_base.18*]
  store %struct.ap_fixed_base* %this, %struct.ap_fixed_base** %1, align 8
  call void @llvm.dbg.declare(metadata !{%struct.ap_fixed_base** %1}, metadata !9538), !dbg !9539 ; [debug line = 1406:177] [debug variable = this]
  store %struct.ap_fixed_base.1* %op2, %struct.ap_fixed_base.1** %2, align 8
  call void @llvm.dbg.declare(metadata !{%struct.ap_fixed_base.1** %2}, metadata !9540), !dbg !9541 ; [debug line = 1406:254] [debug variable = op2]
  %3 = load %struct.ap_fixed_base** %1            ; [#uses=1 type=%struct.ap_fixed_base*]
  call void @llvm.dbg.declare(metadata !{%struct.ap_fixed_base.18* %agg.result}, metadata !9542), !dbg !9545 ; [debug line = 1406:0] [debug variable = r]
  call void @_ZN13ap_fixed_baseILi37ELi27ELb1EL9ap_q_mode5EL9ap_o_mode3ELi0EEC1Ev(%struct.ap_fixed_base.18* %agg.result), !dbg !9545 ; [debug line = 1406:0]
  call void @llvm.dbg.declare(metadata !{%struct.ap_fixed_base.18* %lhs}, metadata !9546), !dbg !9545 ; [debug line = 1406:0] [debug variable = lhs]
  call void @_ZN13ap_fixed_baseILi37ELi27ELb1EL9ap_q_mode5EL9ap_o_mode3ELi0EEC1ILi28ELi18ELb1ELS0_5ELS1_3ELi0EEERKS_IXT_EXT0_EXT1_EXT2_EXT3_EXT4_EE(%struct.ap_fixed_base.18* %lhs, %struct.ap_fixed_base* %3), !dbg !9545 ; [debug line = 1406:0]
  call void @llvm.dbg.declare(metadata !{%struct.ap_fixed_base.18* %rhs}, metadata !9547), !dbg !9545 ; [debug line = 1406:0] [debug variable = rhs]
  %4 = load %struct.ap_fixed_base.1** %2, align 8, !dbg !9545 ; [#uses=1 type=%struct.ap_fixed_base.1*] [debug line = 1406:0]
  call void @_ZN13ap_fixed_baseILi37ELi27ELb1EL9ap_q_mode5EL9ap_o_mode3ELi0EEC1ILi36ELi26ELb1ELS0_5ELS1_3ELi0EEERKS_IXT_EXT0_EXT1_EXT2_EXT3_EXT4_EE(%struct.ap_fixed_base.18* %rhs, %struct.ap_fixed_base.1* %4), !dbg !9545 ; [debug line = 1406:0]
  %5 = bitcast %struct.ap_fixed_base.18* %lhs to %struct.ssdm_int.19*, !dbg !9545 ; [#uses=1 type=%struct.ssdm_int.19*] [debug line = 1406:0]
  %6 = getelementptr inbounds %struct.ssdm_int.19* %5, i32 0, i32 0, !dbg !9545 ; [#uses=1 type=i37*] [debug line = 1406:0]
  %7 = load i37* %6, align 8, !dbg !9545          ; [#uses=1 type=i37] [debug line = 1406:0]
  %8 = bitcast %struct.ap_fixed_base.18* %rhs to %struct.ssdm_int.19*, !dbg !9545 ; [#uses=1 type=%struct.ssdm_int.19*] [debug line = 1406:0]
  %9 = getelementptr inbounds %struct.ssdm_int.19* %8, i32 0, i32 0, !dbg !9545 ; [#uses=1 type=i37*] [debug line = 1406:0]
  %10 = load i37* %9, align 8, !dbg !9545         ; [#uses=1 type=i37] [debug line = 1406:0]
  %11 = add nsw i37 %7, %10, !dbg !9545           ; [#uses=1 type=i37] [debug line = 1406:0]
  %12 = bitcast %struct.ap_fixed_base.18* %agg.result to %struct.ssdm_int.19*, !dbg !9545 ; [#uses=1 type=%struct.ssdm_int.19*] [debug line = 1406:0]
  %13 = getelementptr inbounds %struct.ssdm_int.19* %12, i32 0, i32 0, !dbg !9545 ; [#uses=1 type=i37*] [debug line = 1406:0]
  store i37 %11, i37* %13, align 8, !dbg !9545    ; [debug line = 1406:0]
  ret void, !dbg !9545                            ; [debug line = 1406:0]
}

; [#uses=1]
define linkonce_odr void @_ZN13ap_fixed_baseILi37ELi27ELb1EL9ap_q_mode5EL9ap_o_mode3ELi0EEC1Ev(%struct.ap_fixed_base.18* %this) unnamed_addr nounwind uwtable inlinehint alwaysinline align 2 {
  %1 = alloca %struct.ap_fixed_base.18*, align 8  ; [#uses=2 type=%struct.ap_fixed_base.18**]
  store %struct.ap_fixed_base.18* %this, %struct.ap_fixed_base.18** %1, align 8
  call void @llvm.dbg.declare(metadata !{%struct.ap_fixed_base.18** %1}, metadata !9548), !dbg !9550 ; [debug line = 653:43] [debug variable = this]
  %2 = load %struct.ap_fixed_base.18** %1         ; [#uses=1 type=%struct.ap_fixed_base.18*]
  call void @_ZN13ap_fixed_baseILi37ELi27ELb1EL9ap_q_mode5EL9ap_o_mode3ELi0EEC2Ev(%struct.ap_fixed_base.18* %2), !dbg !9551 ; [debug line = 660:5]
  ret void, !dbg !9551                            ; [debug line = 660:5]
}

; [#uses=1]
define linkonce_odr void @_ZN13ap_fixed_baseILi37ELi27ELb1EL9ap_q_mode5EL9ap_o_mode3ELi0EEC1ILi28ELi18ELb1ELS0_5ELS1_3ELi0EEERKS_IXT_EXT0_EXT1_EXT2_EXT3_EXT4_EE(%struct.ap_fixed_base.18* %this, %struct.ap_fixed_base* %op) unnamed_addr nounwind uwtable align 2 {
  %1 = alloca %struct.ap_fixed_base.18*, align 8  ; [#uses=2 type=%struct.ap_fixed_base.18**]
  %2 = alloca %struct.ap_fixed_base*, align 8     ; [#uses=2 type=%struct.ap_fixed_base**]
  store %struct.ap_fixed_base.18* %this, %struct.ap_fixed_base.18** %1, align 8
  call void @llvm.dbg.declare(metadata !{%struct.ap_fixed_base.18** %1}, metadata !9552), !dbg !9553 ; [debug line = 663:31] [debug variable = this]
  store %struct.ap_fixed_base* %op, %struct.ap_fixed_base** %2, align 8
  call void @llvm.dbg.declare(metadata !{%struct.ap_fixed_base** %2}, metadata !9554), !dbg !9555 ; [debug line = 663:111] [debug variable = op]
  %3 = load %struct.ap_fixed_base.18** %1         ; [#uses=1 type=%struct.ap_fixed_base.18*]
  %4 = load %struct.ap_fixed_base** %2, !dbg !9556 ; [#uses=1 type=%struct.ap_fixed_base*] [debug line = 773:5]
  call void @_ZN13ap_fixed_baseILi37ELi27ELb1EL9ap_q_mode5EL9ap_o_mode3ELi0EEC2ILi28ELi18ELb1ELS0_5ELS1_3ELi0EEERKS_IXT_EXT0_EXT1_EXT2_EXT3_EXT4_EE(%struct.ap_fixed_base.18* %3, %struct.ap_fixed_base* %4), !dbg !9556 ; [debug line = 773:5]
  ret void, !dbg !9556                            ; [debug line = 773:5]
}

; [#uses=1]
define linkonce_odr void @_ZN13ap_fixed_baseILi37ELi27ELb1EL9ap_q_mode5EL9ap_o_mode3ELi0EEC1ILi36ELi26ELb1ELS0_5ELS1_3ELi0EEERKS_IXT_EXT0_EXT1_EXT2_EXT3_EXT4_EE(%struct.ap_fixed_base.18* %this, %struct.ap_fixed_base.1* %op) unnamed_addr nounwind uwtable align 2 {
  %1 = alloca %struct.ap_fixed_base.18*, align 8  ; [#uses=2 type=%struct.ap_fixed_base.18**]
  %2 = alloca %struct.ap_fixed_base.1*, align 8   ; [#uses=2 type=%struct.ap_fixed_base.1**]
  store %struct.ap_fixed_base.18* %this, %struct.ap_fixed_base.18** %1, align 8
  call void @llvm.dbg.declare(metadata !{%struct.ap_fixed_base.18** %1}, metadata !9557), !dbg !9558 ; [debug line = 663:31] [debug variable = this]
  store %struct.ap_fixed_base.1* %op, %struct.ap_fixed_base.1** %2, align 8
  call void @llvm.dbg.declare(metadata !{%struct.ap_fixed_base.1** %2}, metadata !9559), !dbg !9560 ; [debug line = 663:111] [debug variable = op]
  %3 = load %struct.ap_fixed_base.18** %1         ; [#uses=1 type=%struct.ap_fixed_base.18*]
  %4 = load %struct.ap_fixed_base.1** %2, !dbg !9561 ; [#uses=1 type=%struct.ap_fixed_base.1*] [debug line = 773:5]
  call void @_ZN13ap_fixed_baseILi37ELi27ELb1EL9ap_q_mode5EL9ap_o_mode3ELi0EEC2ILi36ELi26ELb1ELS0_5ELS1_3ELi0EEERKS_IXT_EXT0_EXT1_EXT2_EXT3_EXT4_EE(%struct.ap_fixed_base.18* %3, %struct.ap_fixed_base.1* %4), !dbg !9561 ; [debug line = 773:5]
  ret void, !dbg !9561                            ; [debug line = 773:5]
}

; [#uses=1]
define linkonce_odr void @_ZN13ap_fixed_baseILi37ELi27ELb1EL9ap_q_mode5EL9ap_o_mode3ELi0EEC2ILi36ELi26ELb1ELS0_5ELS1_3ELi0EEERKS_IXT_EXT0_EXT1_EXT2_EXT3_EXT4_EE(%struct.ap_fixed_base.18* %this, %struct.ap_fixed_base.1* %op) unnamed_addr nounwind uwtable align 2 {
  %1 = alloca %struct.ap_fixed_base.18*, align 8  ; [#uses=2 type=%struct.ap_fixed_base.18**]
  %2 = alloca %struct.ap_fixed_base.1*, align 8   ; [#uses=3 type=%struct.ap_fixed_base.1**]
  %carry = alloca i1, align 1                     ; [#uses=1 type=i1*]
  %sh_amt = alloca i32, align 4                   ; [#uses=1 type=i32*]
  %signbit = alloca i1, align 1                   ; [#uses=2 type=i1*]
  %__Result__ = alloca i36, align 8               ; [#uses=4 type=i36*]
  %__Val2__ = alloca i36, align 8                 ; [#uses=3 type=i36*]
  %isneg = alloca i1, align 1                     ; [#uses=1 type=i1*]
  store %struct.ap_fixed_base.18* %this, %struct.ap_fixed_base.18** %1, align 8
  call void @llvm.dbg.declare(metadata !{%struct.ap_fixed_base.18** %1}, metadata !9562), !dbg !9563 ; [debug line = 663:31] [debug variable = this]
  store %struct.ap_fixed_base.1* %op, %struct.ap_fixed_base.1** %2, align 8
  call void @llvm.dbg.declare(metadata !{%struct.ap_fixed_base.1** %2}, metadata !9564), !dbg !9565 ; [debug line = 663:111] [debug variable = op]
  %3 = load %struct.ap_fixed_base.18** %1         ; [#uses=2 type=%struct.ap_fixed_base.18*]
  %4 = bitcast %struct.ap_fixed_base.18* %3 to %struct.ssdm_int.19*, !dbg !9566 ; [#uses=1 type=%struct.ssdm_int.19*] [debug line = 663:115]
  call void @_ZN8ssdm_intILi37ELb1EEC2Ev(%struct.ssdm_int.19* %4), !dbg !9566 ; [debug line = 663:115]
  call void (...)* @_ssdm_InlineSelf(i32 0, i8* getelementptr inbounds ([1 x i8]* @.str, i32 0, i32 0)) nounwind, !dbg !9567 ; [debug line = 665:1]
  call void @llvm.dbg.declare(metadata !{i1* %carry}, metadata !9569), !dbg !9570 ; [debug line = 669:14] [debug variable = carry]
  store i1 false, i1* %carry, align 1, !dbg !9571 ; [debug line = 669:27]
  call void @llvm.dbg.declare(metadata !{i32* %sh_amt}, metadata !9572), !dbg !9573 ; [debug line = 674:18] [debug variable = sh_amt]
  store i32 0, i32* %sh_amt, align 4, !dbg !9574  ; [debug line = 674:65]
  call void @llvm.dbg.declare(metadata !{i1* %signbit}, metadata !9575), !dbg !9576 ; [debug line = 675:14] [debug variable = signbit]
  call void @llvm.dbg.declare(metadata !{i36* %__Result__}, metadata !9577), !dbg !9579 ; [debug line = 675:116] [debug variable = __Result__]
  store i36 0, i36* %__Result__, align 8, !dbg !9580 ; [debug line = 675:130]
  call void @llvm.dbg.declare(metadata !{i36* %__Val2__}, metadata !9581), !dbg !9582 ; [debug line = 675:221] [debug variable = __Val2__]
  %5 = load %struct.ap_fixed_base.1** %2, align 8, !dbg !9583 ; [#uses=1 type=%struct.ap_fixed_base.1*] [debug line = 675:0]
  %6 = bitcast %struct.ap_fixed_base.1* %5 to %struct.ssdm_int.2*, !dbg !9583 ; [#uses=1 type=%struct.ssdm_int.2*] [debug line = 675:0]
  %7 = getelementptr inbounds %struct.ssdm_int.2* %6, i32 0, i32 0, !dbg !9583 ; [#uses=1 type=i36*] [debug line = 675:0]
  %8 = load i36* %7, align 8, !dbg !9583          ; [#uses=1 type=i36] [debug line = 675:0]
  store i36 %8, i36* %__Val2__, align 8, !dbg !9583 ; [debug line = 675:0]
  %9 = bitcast i36* %__Result__ to i8*, !dbg !9583 ; [#uses=0 type=i8*] [debug line = 675:0]
  %10 = bitcast i36* %__Val2__ to i8*, !dbg !9583 ; [#uses=0 type=i8*] [debug line = 675:0]
  %11 = load i36* %__Val2__, !dbg !9583           ; [#uses=1 type=i36] [debug line = 675:0]
  %12 = call i36 @llvm.part.select.i36(i36 %11, i32 35, i32 35), !dbg !9583 ; [#uses=1 type=i36] [debug line = 675:0]
  store i36 %12, i36* %__Result__, !dbg !9583     ; [debug line = 675:0]
  %13 = load i36* %__Result__, align 8, !dbg !9583 ; [#uses=1 type=i36] [debug line = 675:0]
  %14 = and i36 %13, 1, !dbg !9583                ; [#uses=1 type=i36] [debug line = 675:0]
  %15 = icmp ne i36 %14, 0, !dbg !9583            ; [#uses=1 type=i1] [debug line = 675:0]
  store i1 %15, i1* %signbit, align 1, !dbg !9583 ; [debug line = 675:0]
  call void @llvm.dbg.declare(metadata !{i1* %isneg}, metadata !9584), !dbg !9585 ; [debug line = 677:14] [debug variable = isneg]
  %16 = load i1* %signbit, align 1, !dbg !9586    ; [#uses=1 type=i1] [debug line = 677:39]
  br i1 %16, label %17, label %18, !dbg !9586     ; [debug line = 677:39]

; <label>:17                                      ; preds = %0
  br label %18

; <label>:18                                      ; preds = %17, %0
  %19 = phi i1 [ false, %0 ], [ true, %17 ]       ; [#uses=1 type=i1]
  store i1 %19, i1* %isneg, align 1
  %20 = load %struct.ap_fixed_base.1** %2, align 8, !dbg !9587 ; [#uses=1 type=%struct.ap_fixed_base.1*] [debug line = 679:13]
  %21 = bitcast %struct.ap_fixed_base.1* %20 to %struct.ssdm_int.2*, !dbg !9587 ; [#uses=1 type=%struct.ssdm_int.2*] [debug line = 679:13]
  %22 = getelementptr inbounds %struct.ssdm_int.2* %21, i32 0, i32 0, !dbg !9587 ; [#uses=1 type=i36*] [debug line = 679:13]
  %23 = load i36* %22, align 8, !dbg !9587        ; [#uses=1 type=i36] [debug line = 679:13]
  %24 = sext i36 %23 to i37, !dbg !9587           ; [#uses=1 type=i37] [debug line = 679:13]
  %25 = bitcast %struct.ap_fixed_base.18* %3 to %struct.ssdm_int.19*, !dbg !9587 ; [#uses=1 type=%struct.ssdm_int.19*] [debug line = 679:13]
  %26 = getelementptr inbounds %struct.ssdm_int.19* %25, i32 0, i32 0, !dbg !9587 ; [#uses=1 type=i37*] [debug line = 679:13]
  store i37 %24, i37* %26, align 8, !dbg !9587    ; [debug line = 679:13]
  ret void, !dbg !9588                            ; [debug line = 773:5]
}

; [#uses=3]
define linkonce_odr void @_ZN8ssdm_intILi37ELb1EEC2Ev(%struct.ssdm_int.19* %this) unnamed_addr nounwind uwtable inlinehint alwaysinline align 2 {
  %1 = alloca %struct.ssdm_int.19*, align 8       ; [#uses=2 type=%struct.ssdm_int.19**]
  store %struct.ssdm_int.19* %this, %struct.ssdm_int.19** %1, align 8
  call void @llvm.dbg.declare(metadata !{%struct.ssdm_int.19** %1}, metadata !9589), !dbg !9591 ; [debug line = 39:137] [debug variable = this]
  %2 = load %struct.ssdm_int.19** %1              ; [#uses=0 type=%struct.ssdm_int.19*]
  ret void, !dbg !9592                            ; [debug line = 39:171]
}

; [#uses=1]
declare i36 @llvm.part.select.i36(i36, i32, i32) nounwind readnone

; [#uses=1]
define linkonce_odr void @_ZN13ap_fixed_baseILi37ELi27ELb1EL9ap_q_mode5EL9ap_o_mode3ELi0EEC2ILi28ELi18ELb1ELS0_5ELS1_3ELi0EEERKS_IXT_EXT0_EXT1_EXT2_EXT3_EXT4_EE(%struct.ap_fixed_base.18* %this, %struct.ap_fixed_base* %op) unnamed_addr nounwind uwtable align 2 {
  %1 = alloca %struct.ap_fixed_base.18*, align 8  ; [#uses=2 type=%struct.ap_fixed_base.18**]
  %2 = alloca %struct.ap_fixed_base*, align 8     ; [#uses=3 type=%struct.ap_fixed_base**]
  %carry = alloca i1, align 1                     ; [#uses=1 type=i1*]
  %sh_amt = alloca i32, align 4                   ; [#uses=1 type=i32*]
  %signbit = alloca i1, align 1                   ; [#uses=2 type=i1*]
  %__Result__ = alloca i28, align 4               ; [#uses=4 type=i28*]
  %__Val2__ = alloca i28, align 4                 ; [#uses=3 type=i28*]
  %isneg = alloca i1, align 1                     ; [#uses=1 type=i1*]
  store %struct.ap_fixed_base.18* %this, %struct.ap_fixed_base.18** %1, align 8
  call void @llvm.dbg.declare(metadata !{%struct.ap_fixed_base.18** %1}, metadata !9594), !dbg !9595 ; [debug line = 663:31] [debug variable = this]
  store %struct.ap_fixed_base* %op, %struct.ap_fixed_base** %2, align 8
  call void @llvm.dbg.declare(metadata !{%struct.ap_fixed_base** %2}, metadata !9596), !dbg !9597 ; [debug line = 663:111] [debug variable = op]
  %3 = load %struct.ap_fixed_base.18** %1         ; [#uses=2 type=%struct.ap_fixed_base.18*]
  %4 = bitcast %struct.ap_fixed_base.18* %3 to %struct.ssdm_int.19*, !dbg !9598 ; [#uses=1 type=%struct.ssdm_int.19*] [debug line = 663:115]
  call void @_ZN8ssdm_intILi37ELb1EEC2Ev(%struct.ssdm_int.19* %4), !dbg !9598 ; [debug line = 663:115]
  call void (...)* @_ssdm_InlineSelf(i32 0, i8* getelementptr inbounds ([1 x i8]* @.str, i32 0, i32 0)) nounwind, !dbg !9599 ; [debug line = 665:1]
  call void @llvm.dbg.declare(metadata !{i1* %carry}, metadata !9601), !dbg !9602 ; [debug line = 669:14] [debug variable = carry]
  store i1 false, i1* %carry, align 1, !dbg !9603 ; [debug line = 669:27]
  call void @llvm.dbg.declare(metadata !{i32* %sh_amt}, metadata !9604), !dbg !9605 ; [debug line = 674:18] [debug variable = sh_amt]
  store i32 0, i32* %sh_amt, align 4, !dbg !9606  ; [debug line = 674:65]
  call void @llvm.dbg.declare(metadata !{i1* %signbit}, metadata !9607), !dbg !9608 ; [debug line = 675:14] [debug variable = signbit]
  call void @llvm.dbg.declare(metadata !{i28* %__Result__}, metadata !9609), !dbg !9611 ; [debug line = 675:116] [debug variable = __Result__]
  store i28 0, i28* %__Result__, align 4, !dbg !9612 ; [debug line = 675:130]
  call void @llvm.dbg.declare(metadata !{i28* %__Val2__}, metadata !9613), !dbg !9614 ; [debug line = 675:221] [debug variable = __Val2__]
  %5 = load %struct.ap_fixed_base** %2, align 8, !dbg !9615 ; [#uses=1 type=%struct.ap_fixed_base*] [debug line = 675:0]
  %6 = bitcast %struct.ap_fixed_base* %5 to %struct.ssdm_int*, !dbg !9615 ; [#uses=1 type=%struct.ssdm_int*] [debug line = 675:0]
  %7 = getelementptr inbounds %struct.ssdm_int* %6, i32 0, i32 0, !dbg !9615 ; [#uses=1 type=i28*] [debug line = 675:0]
  %8 = load i28* %7, align 4, !dbg !9615          ; [#uses=1 type=i28] [debug line = 675:0]
  store i28 %8, i28* %__Val2__, align 4, !dbg !9615 ; [debug line = 675:0]
  %9 = bitcast i28* %__Result__ to i8*, !dbg !9615 ; [#uses=0 type=i8*] [debug line = 675:0]
  %10 = bitcast i28* %__Val2__ to i8*, !dbg !9615 ; [#uses=0 type=i8*] [debug line = 675:0]
  %11 = load i28* %__Val2__, !dbg !9615           ; [#uses=1 type=i28] [debug line = 675:0]
  %12 = call i28 @llvm.part.select.i28(i28 %11, i32 27, i32 27), !dbg !9615 ; [#uses=1 type=i28] [debug line = 675:0]
  store i28 %12, i28* %__Result__, !dbg !9615     ; [debug line = 675:0]
  %13 = load i28* %__Result__, align 4, !dbg !9615 ; [#uses=1 type=i28] [debug line = 675:0]
  %14 = sext i28 %13 to i32, !dbg !9615           ; [#uses=1 type=i32] [debug line = 675:0]
  %15 = and i32 %14, 1, !dbg !9615                ; [#uses=1 type=i32] [debug line = 675:0]
  %16 = icmp ne i32 %15, 0, !dbg !9615            ; [#uses=1 type=i1] [debug line = 675:0]
  store i1 %16, i1* %signbit, align 1, !dbg !9615 ; [debug line = 675:0]
  call void @llvm.dbg.declare(metadata !{i1* %isneg}, metadata !9616), !dbg !9617 ; [debug line = 677:14] [debug variable = isneg]
  %17 = load i1* %signbit, align 1, !dbg !9618    ; [#uses=1 type=i1] [debug line = 677:39]
  br i1 %17, label %18, label %19, !dbg !9618     ; [debug line = 677:39]

; <label>:18                                      ; preds = %0
  br label %19

; <label>:19                                      ; preds = %18, %0
  %20 = phi i1 [ false, %0 ], [ true, %18 ]       ; [#uses=1 type=i1]
  store i1 %20, i1* %isneg, align 1
  %21 = load %struct.ap_fixed_base** %2, align 8, !dbg !9619 ; [#uses=1 type=%struct.ap_fixed_base*] [debug line = 679:13]
  %22 = bitcast %struct.ap_fixed_base* %21 to %struct.ssdm_int*, !dbg !9619 ; [#uses=1 type=%struct.ssdm_int*] [debug line = 679:13]
  %23 = getelementptr inbounds %struct.ssdm_int* %22, i32 0, i32 0, !dbg !9619 ; [#uses=1 type=i28*] [debug line = 679:13]
  %24 = load i28* %23, align 4, !dbg !9619        ; [#uses=1 type=i28] [debug line = 679:13]
  %25 = sext i28 %24 to i37, !dbg !9619           ; [#uses=1 type=i37] [debug line = 679:13]
  %26 = bitcast %struct.ap_fixed_base.18* %3 to %struct.ssdm_int.19*, !dbg !9619 ; [#uses=1 type=%struct.ssdm_int.19*] [debug line = 679:13]
  %27 = getelementptr inbounds %struct.ssdm_int.19* %26, i32 0, i32 0, !dbg !9619 ; [#uses=1 type=i37*] [debug line = 679:13]
  store i37 %25, i37* %27, align 8, !dbg !9619    ; [debug line = 679:13]
  ret void, !dbg !9620                            ; [debug line = 773:5]
}

; [#uses=1]
define linkonce_odr void @_ZN13ap_fixed_baseILi37ELi27ELb1EL9ap_q_mode5EL9ap_o_mode3ELi0EEC2Ev(%struct.ap_fixed_base.18* %this) unnamed_addr nounwind uwtable inlinehint alwaysinline align 2 {
  %1 = alloca %struct.ap_fixed_base.18*, align 8  ; [#uses=2 type=%struct.ap_fixed_base.18**]
  store %struct.ap_fixed_base.18* %this, %struct.ap_fixed_base.18** %1, align 8
  call void @llvm.dbg.declare(metadata !{%struct.ap_fixed_base.18** %1}, metadata !9621), !dbg !9622 ; [debug line = 653:43] [debug variable = this]
  %2 = load %struct.ap_fixed_base.18** %1         ; [#uses=1 type=%struct.ap_fixed_base.18*]
  %3 = bitcast %struct.ap_fixed_base.18* %2 to %struct.ssdm_int.19*, !dbg !9623 ; [#uses=1 type=%struct.ssdm_int.19*] [debug line = 653:59]
  call void @_ZN8ssdm_intILi37ELb1EEC2Ev(%struct.ssdm_int.19* %3), !dbg !9623 ; [debug line = 653:59]
  ret void, !dbg !9624                            ; [debug line = 660:5]
}

; [#uses=1]
define linkonce_odr void @_ZN13ap_fixed_baseILi28ELi18ELb1EL9ap_q_mode5EL9ap_o_mode3ELi0EEC2ILi37ELi27ELb1ELS0_5ELS1_3ELi0EEERKS_IXT_EXT0_EXT1_EXT2_EXT3_EXT4_EE(%struct.ap_fixed_base* %this, %struct.ap_fixed_base.18* %op) unnamed_addr nounwind uwtable align 2 {
  %1 = alloca %struct.ap_fixed_base*, align 8     ; [#uses=2 type=%struct.ap_fixed_base**]
  %2 = alloca %struct.ap_fixed_base.18*, align 8  ; [#uses=3 type=%struct.ap_fixed_base.18**]
  %carry = alloca i1, align 1                     ; [#uses=1 type=i1*]
  %sh_amt = alloca i32, align 4                   ; [#uses=1 type=i32*]
  %signbit = alloca i1, align 1                   ; [#uses=2 type=i1*]
  %__Result__ = alloca i37, align 8               ; [#uses=4 type=i37*]
  %__Val2__ = alloca i37, align 8                 ; [#uses=3 type=i37*]
  %isneg = alloca i1, align 1                     ; [#uses=1 type=i1*]
  store %struct.ap_fixed_base* %this, %struct.ap_fixed_base** %1, align 8
  call void @llvm.dbg.declare(metadata !{%struct.ap_fixed_base** %1}, metadata !9626), !dbg !9627 ; [debug line = 663:31] [debug variable = this]
  store %struct.ap_fixed_base.18* %op, %struct.ap_fixed_base.18** %2, align 8
  call void @llvm.dbg.declare(metadata !{%struct.ap_fixed_base.18** %2}, metadata !9628), !dbg !9629 ; [debug line = 663:111] [debug variable = op]
  %3 = load %struct.ap_fixed_base** %1            ; [#uses=2 type=%struct.ap_fixed_base*]
  %4 = bitcast %struct.ap_fixed_base* %3 to %struct.ssdm_int*, !dbg !9630 ; [#uses=1 type=%struct.ssdm_int*] [debug line = 663:115]
  call void @_ZN8ssdm_intILi28ELb1EEC2Ev(%struct.ssdm_int* %4), !dbg !9630 ; [debug line = 663:115]
  call void (...)* @_ssdm_InlineSelf(i32 0, i8* getelementptr inbounds ([1 x i8]* @.str, i32 0, i32 0)) nounwind, !dbg !9631 ; [debug line = 665:1]
  call void @llvm.dbg.declare(metadata !{i1* %carry}, metadata !9633), !dbg !9634 ; [debug line = 669:14] [debug variable = carry]
  store i1 false, i1* %carry, align 1, !dbg !9635 ; [debug line = 669:27]
  call void @llvm.dbg.declare(metadata !{i32* %sh_amt}, metadata !9636), !dbg !9637 ; [debug line = 674:18] [debug variable = sh_amt]
  store i32 0, i32* %sh_amt, align 4, !dbg !9638  ; [debug line = 674:65]
  call void @llvm.dbg.declare(metadata !{i1* %signbit}, metadata !9639), !dbg !9640 ; [debug line = 675:14] [debug variable = signbit]
  call void @llvm.dbg.declare(metadata !{i37* %__Result__}, metadata !9641), !dbg !9643 ; [debug line = 675:116] [debug variable = __Result__]
  store i37 0, i37* %__Result__, align 8, !dbg !9644 ; [debug line = 675:130]
  call void @llvm.dbg.declare(metadata !{i37* %__Val2__}, metadata !9645), !dbg !9646 ; [debug line = 675:221] [debug variable = __Val2__]
  %5 = load %struct.ap_fixed_base.18** %2, align 8, !dbg !9647 ; [#uses=1 type=%struct.ap_fixed_base.18*] [debug line = 675:0]
  %6 = bitcast %struct.ap_fixed_base.18* %5 to %struct.ssdm_int.19*, !dbg !9647 ; [#uses=1 type=%struct.ssdm_int.19*] [debug line = 675:0]
  %7 = getelementptr inbounds %struct.ssdm_int.19* %6, i32 0, i32 0, !dbg !9647 ; [#uses=1 type=i37*] [debug line = 675:0]
  %8 = load i37* %7, align 8, !dbg !9647          ; [#uses=1 type=i37] [debug line = 675:0]
  store i37 %8, i37* %__Val2__, align 8, !dbg !9647 ; [debug line = 675:0]
  %9 = bitcast i37* %__Result__ to i8*, !dbg !9647 ; [#uses=0 type=i8*] [debug line = 675:0]
  %10 = bitcast i37* %__Val2__ to i8*, !dbg !9647 ; [#uses=0 type=i8*] [debug line = 675:0]
  %11 = load i37* %__Val2__, !dbg !9647           ; [#uses=1 type=i37] [debug line = 675:0]
  %12 = call i37 @llvm.part.select.i37(i37 %11, i32 36, i32 36), !dbg !9647 ; [#uses=1 type=i37] [debug line = 675:0]
  store i37 %12, i37* %__Result__, !dbg !9647     ; [debug line = 675:0]
  %13 = load i37* %__Result__, align 8, !dbg !9647 ; [#uses=1 type=i37] [debug line = 675:0]
  %14 = and i37 %13, 1, !dbg !9647                ; [#uses=1 type=i37] [debug line = 675:0]
  %15 = icmp ne i37 %14, 0, !dbg !9647            ; [#uses=1 type=i1] [debug line = 675:0]
  store i1 %15, i1* %signbit, align 1, !dbg !9647 ; [debug line = 675:0]
  call void @llvm.dbg.declare(metadata !{i1* %isneg}, metadata !9648), !dbg !9649 ; [debug line = 677:14] [debug variable = isneg]
  %16 = load i1* %signbit, align 1, !dbg !9650    ; [#uses=1 type=i1] [debug line = 677:39]
  br i1 %16, label %17, label %18, !dbg !9650     ; [debug line = 677:39]

; <label>:17                                      ; preds = %0
  br label %18

; <label>:18                                      ; preds = %17, %0
  %19 = phi i1 [ false, %0 ], [ true, %17 ]       ; [#uses=1 type=i1]
  store i1 %19, i1* %isneg, align 1
  %20 = load %struct.ap_fixed_base.18** %2, align 8, !dbg !9651 ; [#uses=1 type=%struct.ap_fixed_base.18*] [debug line = 679:13]
  %21 = bitcast %struct.ap_fixed_base.18* %20 to %struct.ssdm_int.19*, !dbg !9651 ; [#uses=1 type=%struct.ssdm_int.19*] [debug line = 679:13]
  %22 = getelementptr inbounds %struct.ssdm_int.19* %21, i32 0, i32 0, !dbg !9651 ; [#uses=1 type=i37*] [debug line = 679:13]
  %23 = load i37* %22, align 8, !dbg !9651        ; [#uses=1 type=i37] [debug line = 679:13]
  %24 = trunc i37 %23 to i28, !dbg !9651          ; [#uses=1 type=i28] [debug line = 679:13]
  %25 = bitcast %struct.ap_fixed_base* %3 to %struct.ssdm_int*, !dbg !9651 ; [#uses=1 type=%struct.ssdm_int*] [debug line = 679:13]
  %26 = getelementptr inbounds %struct.ssdm_int* %25, i32 0, i32 0, !dbg !9651 ; [#uses=1 type=i28*] [debug line = 679:13]
  store i28 %24, i28* %26, align 4, !dbg !9651    ; [debug line = 679:13]
  ret void, !dbg !9652                            ; [debug line = 773:5]
}

; [#uses=4]
define linkonce_odr void @_ZN8ssdm_intILi28ELb1EEC2Ev(%struct.ssdm_int* %this) unnamed_addr nounwind uwtable inlinehint alwaysinline align 2 {
  %1 = alloca %struct.ssdm_int*, align 8          ; [#uses=2 type=%struct.ssdm_int**]
  store %struct.ssdm_int* %this, %struct.ssdm_int** %1, align 8
  call void @llvm.dbg.declare(metadata !{%struct.ssdm_int** %1}, metadata !9653), !dbg !9655 ; [debug line = 30:137] [debug variable = this]
  %2 = load %struct.ssdm_int** %1                 ; [#uses=0 type=%struct.ssdm_int*]
  ret void, !dbg !9656                            ; [debug line = 30:171]
}

; [#uses=1]
declare i37 @llvm.part.select.i37(i37, i32, i32) nounwind readnone

; [#uses=1]
define linkonce_odr void @_ZN13ap_fixed_baseILi8ELi8ELb0EL9ap_q_mode5EL9ap_o_mode3ELi0EEC1ILi8ELb0EEERK11ap_int_baseIXT_EXT0_EXleT_Li64EEE(%struct.ap_int_base* %this, %struct.ap_int_base* %op) unnamed_addr nounwind uwtable inlinehint alwaysinline align 2 {
  %1 = alloca %struct.ap_int_base*, align 8       ; [#uses=2 type=%struct.ap_int_base**]
  %2 = alloca %struct.ap_int_base*, align 8       ; [#uses=2 type=%struct.ap_int_base**]
  store %struct.ap_int_base* %this, %struct.ap_int_base** %1, align 8
  call void @llvm.dbg.declare(metadata !{%struct.ap_int_base** %1}, metadata !9658), !dbg !9660 ; [debug line = 782:43] [debug variable = this]
  store %struct.ap_int_base* %op, %struct.ap_int_base** %2, align 8
  call void @llvm.dbg.declare(metadata !{%struct.ap_int_base** %2}, metadata !9661), !dbg !9662 ; [debug line = 782:92] [debug variable = op]
  %3 = load %struct.ap_int_base** %1              ; [#uses=1 type=%struct.ap_int_base*]
  %4 = load %struct.ap_int_base** %2, !dbg !9663  ; [#uses=1 type=%struct.ap_int_base*] [debug line = 787:5]
  call void @_ZN13ap_fixed_baseILi8ELi8ELb0EL9ap_q_mode5EL9ap_o_mode3ELi0EEC2ILi8ELb0EEERK11ap_int_baseIXT_EXT0_EXleT_Li64EEE(%struct.ap_int_base* %3, %struct.ap_int_base* %4), !dbg !9663 ; [debug line = 787:5]
  ret void, !dbg !9663                            ; [debug line = 787:5]
}

; [#uses=1]
define linkonce_odr void @_ZNK13ap_fixed_baseILi8ELi8ELb0EL9ap_q_mode5EL9ap_o_mode3ELi0EEmlILi28ELi18ELb1ELS0_5ELS1_3ELi0EEENS2_5RTypeIXT_EXT0_EXT1_EE4multERKS_IXT_EXT0_EXT1_EXT2_EXT3_EXT4_EE(%struct.ap_fixed_base.1* noalias sret %agg.result, %struct.ap_int_base* %this, %struct.ap_fixed_base* %op2) nounwind uwtable inlinehint alwaysinline align 2 {
  %1 = alloca %struct.ap_int_base*, align 8       ; [#uses=2 type=%struct.ap_int_base**]
  %2 = alloca %struct.ap_fixed_base*, align 8     ; [#uses=2 type=%struct.ap_fixed_base**]
  %OP1 = alloca %struct.ap_fixed_base.1, align 8  ; [#uses=3 type=%struct.ap_fixed_base.1*]
  %OP2 = alloca %struct.ap_fixed_base.1, align 8  ; [#uses=3 type=%struct.ap_fixed_base.1*]
  store %struct.ap_int_base* %this, %struct.ap_int_base** %1, align 8
  call void @llvm.dbg.declare(metadata !{%struct.ap_int_base** %1}, metadata !9664), !dbg !9666 ; [debug line = 1367:5] [debug variable = this]
  store %struct.ap_fixed_base* %op2, %struct.ap_fixed_base** %2, align 8
  call void @llvm.dbg.declare(metadata !{%struct.ap_fixed_base** %2}, metadata !9667), !dbg !9668 ; [debug line = 1367:81] [debug variable = op2]
  %3 = load %struct.ap_int_base** %1              ; [#uses=1 type=%struct.ap_int_base*]
  call void @llvm.dbg.declare(metadata !{%struct.ap_fixed_base.1* %agg.result}, metadata !9669), !dbg !9672 ; [debug line = 1368:52] [debug variable = r]
  call void @_ZN13ap_fixed_baseILi36ELi26ELb1EL9ap_q_mode5EL9ap_o_mode3ELi0EEC1Ev(%struct.ap_fixed_base.1* %agg.result), !dbg !9673 ; [debug line = 1368:53]
  call void @llvm.dbg.declare(metadata !{%struct.ap_fixed_base.1* %OP1}, metadata !9674), !dbg !9675 ; [debug line = 1369:41] [debug variable = OP1]
  call void @_ZN11ap_int_baseILi36ELb0ELb1EEC1Ev(%struct.ap_fixed_base.1* %OP1), !dbg !9676 ; [debug line = 1369:44]
  %4 = bitcast %struct.ap_int_base* %3 to %struct.ssdm_int.0*, !dbg !9677 ; [#uses=1 type=%struct.ssdm_int.0*] [debug line = 1370:9]
  %5 = getelementptr inbounds %struct.ssdm_int.0* %4, i32 0, i32 0, !dbg !9677 ; [#uses=1 type=i8*] [debug line = 1370:9]
  %6 = load i8* %5, align 1, !dbg !9677           ; [#uses=1 type=i8] [debug line = 1370:9]
  %7 = zext i8 %6 to i36, !dbg !9677              ; [#uses=1 type=i36] [debug line = 1370:9]
  %8 = bitcast %struct.ap_fixed_base.1* %OP1 to %struct.ssdm_int.2*, !dbg !9677 ; [#uses=1 type=%struct.ssdm_int.2*] [debug line = 1370:9]
  %9 = getelementptr inbounds %struct.ssdm_int.2* %8, i32 0, i32 0, !dbg !9677 ; [#uses=1 type=i36*] [debug line = 1370:9]
  store i36 %7, i36* %9, align 8, !dbg !9677      ; [debug line = 1370:9]
  call void @llvm.dbg.declare(metadata !{%struct.ap_fixed_base.1* %OP2}, metadata !9678), !dbg !9679 ; [debug line = 1371:42] [debug variable = OP2]
  call void @_ZN11ap_int_baseILi36ELb1ELb1EEC1Ev(%struct.ap_fixed_base.1* %OP2), !dbg !9680 ; [debug line = 1371:45]
  %10 = load %struct.ap_fixed_base** %2, align 8, !dbg !9681 ; [#uses=1 type=%struct.ap_fixed_base*] [debug line = 1372:9]
  %11 = bitcast %struct.ap_fixed_base* %10 to %struct.ssdm_int*, !dbg !9681 ; [#uses=1 type=%struct.ssdm_int*] [debug line = 1372:9]
  %12 = getelementptr inbounds %struct.ssdm_int* %11, i32 0, i32 0, !dbg !9681 ; [#uses=1 type=i28*] [debug line = 1372:9]
  %13 = load i28* %12, align 4, !dbg !9681        ; [#uses=1 type=i28] [debug line = 1372:9]
  %14 = sext i28 %13 to i36, !dbg !9681           ; [#uses=1 type=i36] [debug line = 1372:9]
  %15 = bitcast %struct.ap_fixed_base.1* %OP2 to %struct.ssdm_int.2*, !dbg !9681 ; [#uses=1 type=%struct.ssdm_int.2*] [debug line = 1372:9]
  %16 = getelementptr inbounds %struct.ssdm_int.2* %15, i32 0, i32 0, !dbg !9681 ; [#uses=1 type=i36*] [debug line = 1372:9]
  store i36 %14, i36* %16, align 8, !dbg !9681    ; [debug line = 1372:9]
  %17 = bitcast %struct.ap_fixed_base.1* %OP1 to %struct.ssdm_int.2*, !dbg !9682 ; [#uses=1 type=%struct.ssdm_int.2*] [debug line = 1373:9]
  %18 = getelementptr inbounds %struct.ssdm_int.2* %17, i32 0, i32 0, !dbg !9682 ; [#uses=1 type=i36*] [debug line = 1373:9]
  %19 = load i36* %18, align 8, !dbg !9682        ; [#uses=1 type=i36] [debug line = 1373:9]
  %20 = bitcast %struct.ap_fixed_base.1* %OP2 to %struct.ssdm_int.2*, !dbg !9682 ; [#uses=1 type=%struct.ssdm_int.2*] [debug line = 1373:9]
  %21 = getelementptr inbounds %struct.ssdm_int.2* %20, i32 0, i32 0, !dbg !9682 ; [#uses=1 type=i36*] [debug line = 1373:9]
  %22 = load i36* %21, align 8, !dbg !9682        ; [#uses=1 type=i36] [debug line = 1373:9]
  %23 = mul i36 %19, %22, !dbg !9682              ; [#uses=1 type=i36] [debug line = 1373:9]
  %24 = bitcast %struct.ap_fixed_base.1* %agg.result to %struct.ssdm_int.2*, !dbg !9682 ; [#uses=1 type=%struct.ssdm_int.2*] [debug line = 1373:9]
  %25 = getelementptr inbounds %struct.ssdm_int.2* %24, i32 0, i32 0, !dbg !9682 ; [#uses=1 type=i36*] [debug line = 1373:9]
  store i36 %23, i36* %25, align 8, !dbg !9682    ; [debug line = 1373:9]
  ret void, !dbg !9683                            ; [debug line = 1374:9]
}

; [#uses=1]
define linkonce_odr void @_ZN13ap_fixed_baseILi36ELi26ELb1EL9ap_q_mode5EL9ap_o_mode3ELi0EEC1Ev(%struct.ap_fixed_base.1* %this) unnamed_addr nounwind uwtable inlinehint alwaysinline align 2 {
  %1 = alloca %struct.ap_fixed_base.1*, align 8   ; [#uses=2 type=%struct.ap_fixed_base.1**]
  store %struct.ap_fixed_base.1* %this, %struct.ap_fixed_base.1** %1, align 8
  call void @llvm.dbg.declare(metadata !{%struct.ap_fixed_base.1** %1}, metadata !9684), !dbg !9686 ; [debug line = 653:43] [debug variable = this]
  %2 = load %struct.ap_fixed_base.1** %1          ; [#uses=1 type=%struct.ap_fixed_base.1*]
  call void @_ZN13ap_fixed_baseILi36ELi26ELb1EL9ap_q_mode5EL9ap_o_mode3ELi0EEC2Ev(%struct.ap_fixed_base.1* %2), !dbg !9687 ; [debug line = 660:5]
  ret void, !dbg !9687                            ; [debug line = 660:5]
}

; [#uses=1]
define linkonce_odr void @_ZN11ap_int_baseILi36ELb0ELb1EEC1Ev(%struct.ap_fixed_base.1* %this) unnamed_addr nounwind uwtable inlinehint alwaysinline align 2 {
  %1 = alloca %struct.ap_fixed_base.1*, align 8   ; [#uses=2 type=%struct.ap_fixed_base.1**]
  store %struct.ap_fixed_base.1* %this, %struct.ap_fixed_base.1** %1, align 8
  call void @llvm.dbg.declare(metadata !{%struct.ap_fixed_base.1** %1}, metadata !9688), !dbg !9690 ; [debug line = 1439:42] [debug variable = this]
  %2 = load %struct.ap_fixed_base.1** %1          ; [#uses=1 type=%struct.ap_fixed_base.1*]
  call void @_ZN11ap_int_baseILi36ELb0ELb1EEC2Ev(%struct.ap_fixed_base.1* %2), !dbg !9691 ; [debug line = 1445:4]
  ret void, !dbg !9691                            ; [debug line = 1445:4]
}

; [#uses=1]
define linkonce_odr void @_ZN11ap_int_baseILi36ELb1ELb1EEC1Ev(%struct.ap_fixed_base.1* %this) unnamed_addr nounwind uwtable inlinehint alwaysinline align 2 {
  %1 = alloca %struct.ap_fixed_base.1*, align 8   ; [#uses=2 type=%struct.ap_fixed_base.1**]
  store %struct.ap_fixed_base.1* %this, %struct.ap_fixed_base.1** %1, align 8
  call void @llvm.dbg.declare(metadata !{%struct.ap_fixed_base.1** %1}, metadata !9692), !dbg !9694 ; [debug line = 1439:42] [debug variable = this]
  %2 = load %struct.ap_fixed_base.1** %1          ; [#uses=1 type=%struct.ap_fixed_base.1*]
  call void @_ZN11ap_int_baseILi36ELb1ELb1EEC2Ev(%struct.ap_fixed_base.1* %2), !dbg !9695 ; [debug line = 1445:4]
  ret void, !dbg !9695                            ; [debug line = 1445:4]
}

; [#uses=1]
define linkonce_odr void @_ZN11ap_int_baseILi36ELb1ELb1EEC2Ev(%struct.ap_fixed_base.1* %this) unnamed_addr nounwind uwtable inlinehint alwaysinline align 2 {
  %1 = alloca %struct.ap_fixed_base.1*, align 8   ; [#uses=2 type=%struct.ap_fixed_base.1**]
  store %struct.ap_fixed_base.1* %this, %struct.ap_fixed_base.1** %1, align 8
  call void @llvm.dbg.declare(metadata !{%struct.ap_fixed_base.1** %1}, metadata !9696), !dbg !9697 ; [debug line = 1439:42] [debug variable = this]
  %2 = load %struct.ap_fixed_base.1** %1          ; [#uses=1 type=%struct.ap_fixed_base.1*]
  %3 = bitcast %struct.ap_fixed_base.1* %2 to %struct.ssdm_int.2*, !dbg !9698 ; [#uses=1 type=%struct.ssdm_int.2*] [debug line = 1439:56]
  call void @_ZN8ssdm_intILi36ELb1EEC2Ev(%struct.ssdm_int.2* %3), !dbg !9698 ; [debug line = 1439:56]
  ret void, !dbg !9699                            ; [debug line = 1445:4]
}

; [#uses=2]
define linkonce_odr void @_ZN8ssdm_intILi36ELb1EEC2Ev(%struct.ssdm_int.2* %this) unnamed_addr nounwind uwtable inlinehint alwaysinline align 2 {
  %1 = alloca %struct.ssdm_int.2*, align 8        ; [#uses=2 type=%struct.ssdm_int.2**]
  store %struct.ssdm_int.2* %this, %struct.ssdm_int.2** %1, align 8
  call void @llvm.dbg.declare(metadata !{%struct.ssdm_int.2** %1}, metadata !9701), !dbg !9703 ; [debug line = 38:137] [debug variable = this]
  %2 = load %struct.ssdm_int.2** %1               ; [#uses=0 type=%struct.ssdm_int.2*]
  ret void, !dbg !9704                            ; [debug line = 38:171]
}

; [#uses=1]
define linkonce_odr void @_ZN11ap_int_baseILi36ELb0ELb1EEC2Ev(%struct.ap_fixed_base.1* %this) unnamed_addr nounwind uwtable inlinehint alwaysinline align 2 {
  %1 = alloca %struct.ap_fixed_base.1*, align 8   ; [#uses=2 type=%struct.ap_fixed_base.1**]
  store %struct.ap_fixed_base.1* %this, %struct.ap_fixed_base.1** %1, align 8
  call void @llvm.dbg.declare(metadata !{%struct.ap_fixed_base.1** %1}, metadata !9706), !dbg !9707 ; [debug line = 1439:42] [debug variable = this]
  %2 = load %struct.ap_fixed_base.1** %1          ; [#uses=1 type=%struct.ap_fixed_base.1*]
  %3 = bitcast %struct.ap_fixed_base.1* %2 to %struct.ssdm_int.2*, !dbg !9708 ; [#uses=1 type=%struct.ssdm_int.2*] [debug line = 1439:56]
  call void @_ZN8ssdm_intILi36ELb0EEC2Ev(%struct.ssdm_int.2* %3), !dbg !9708 ; [debug line = 1439:56]
  ret void, !dbg !9709                            ; [debug line = 1445:4]
}

; [#uses=1]
define linkonce_odr void @_ZN8ssdm_intILi36ELb0EEC2Ev(%struct.ssdm_int.2* %this) unnamed_addr nounwind uwtable inlinehint alwaysinline align 2 {
  %1 = alloca %struct.ssdm_int.2*, align 8        ; [#uses=2 type=%struct.ssdm_int.2**]
  store %struct.ssdm_int.2* %this, %struct.ssdm_int.2** %1, align 8
  call void @llvm.dbg.declare(metadata !{%struct.ssdm_int.2** %1}, metadata !9711), !dbg !9713 ; [debug line = 38:0] [debug variable = this]
  %2 = load %struct.ssdm_int.2** %1               ; [#uses=0 type=%struct.ssdm_int.2*]
  ret void, !dbg !9714                            ; [debug line = 38:0]
}

; [#uses=1]
define linkonce_odr void @_ZN13ap_fixed_baseILi36ELi26ELb1EL9ap_q_mode5EL9ap_o_mode3ELi0EEC2Ev(%struct.ap_fixed_base.1* %this) unnamed_addr nounwind uwtable inlinehint alwaysinline align 2 {
  %1 = alloca %struct.ap_fixed_base.1*, align 8   ; [#uses=2 type=%struct.ap_fixed_base.1**]
  store %struct.ap_fixed_base.1* %this, %struct.ap_fixed_base.1** %1, align 8
  call void @llvm.dbg.declare(metadata !{%struct.ap_fixed_base.1** %1}, metadata !9716), !dbg !9717 ; [debug line = 653:43] [debug variable = this]
  %2 = load %struct.ap_fixed_base.1** %1          ; [#uses=1 type=%struct.ap_fixed_base.1*]
  %3 = bitcast %struct.ap_fixed_base.1* %2 to %struct.ssdm_int.2*, !dbg !9718 ; [#uses=1 type=%struct.ssdm_int.2*] [debug line = 653:59]
  call void @_ZN8ssdm_intILi36ELb1EEC2Ev(%struct.ssdm_int.2* %3), !dbg !9718 ; [debug line = 653:59]
  ret void, !dbg !9719                            ; [debug line = 660:5]
}

; [#uses=1]
define linkonce_odr void @_ZN13ap_fixed_baseILi8ELi8ELb0EL9ap_q_mode5EL9ap_o_mode3ELi0EEC2ILi8ELb0EEERK11ap_int_baseIXT_EXT0_EXleT_Li64EEE(%struct.ap_int_base* %this, %struct.ap_int_base* %op) unnamed_addr nounwind uwtable inlinehint alwaysinline align 2 {
  %1 = alloca %struct.ap_int_base*, align 8       ; [#uses=2 type=%struct.ap_int_base**]
  %2 = alloca %struct.ap_int_base*, align 8       ; [#uses=2 type=%struct.ap_int_base**]
  %f_op = alloca %struct.ap_int_base, align 1     ; [#uses=3 type=%struct.ap_int_base*]
  store %struct.ap_int_base* %this, %struct.ap_int_base** %1, align 8
  call void @llvm.dbg.declare(metadata !{%struct.ap_int_base** %1}, metadata !9721), !dbg !9722 ; [debug line = 782:43] [debug variable = this]
  store %struct.ap_int_base* %op, %struct.ap_int_base** %2, align 8
  call void @llvm.dbg.declare(metadata !{%struct.ap_int_base** %2}, metadata !9723), !dbg !9724 ; [debug line = 782:92] [debug variable = op]
  %3 = load %struct.ap_int_base** %1              ; [#uses=2 type=%struct.ap_int_base*]
  %4 = bitcast %struct.ap_int_base* %3 to %struct.ssdm_int.0*, !dbg !9725 ; [#uses=1 type=%struct.ssdm_int.0*] [debug line = 782:96]
  call void @_ZN8ssdm_intILi8ELb0EEC2Ev(%struct.ssdm_int.0* %4), !dbg !9725 ; [debug line = 782:96]
  call void @llvm.dbg.declare(metadata !{%struct.ap_int_base* %f_op}, metadata !9726), !dbg !9728 ; [debug line = 784:45] [debug variable = f_op]
  call void @_ZN13ap_fixed_baseILi8ELi8ELb0EL9ap_q_mode5EL9ap_o_mode3ELi0EEC1Ev(%struct.ap_int_base* %f_op), !dbg !9729 ; [debug line = 784:49]
  %5 = load %struct.ap_int_base** %2, align 8, !dbg !9730 ; [#uses=1 type=%struct.ap_int_base*] [debug line = 785:9]
  %6 = bitcast %struct.ap_int_base* %5 to %struct.ssdm_int.0*, !dbg !9730 ; [#uses=1 type=%struct.ssdm_int.0*] [debug line = 785:9]
  %7 = getelementptr inbounds %struct.ssdm_int.0* %6, i32 0, i32 0, !dbg !9730 ; [#uses=1 type=i8*] [debug line = 785:9]
  %8 = load i8* %7, align 1, !dbg !9730           ; [#uses=1 type=i8] [debug line = 785:9]
  %9 = bitcast %struct.ap_int_base* %f_op to %struct.ssdm_int.0*, !dbg !9730 ; [#uses=1 type=%struct.ssdm_int.0*] [debug line = 785:9]
  %10 = getelementptr inbounds %struct.ssdm_int.0* %9, i32 0, i32 0, !dbg !9730 ; [#uses=1 type=i8*] [debug line = 785:9]
  store i8 %8, i8* %10, align 1, !dbg !9730       ; [debug line = 785:9]
  %11 = call %struct.ap_int_base* @_ZN13ap_fixed_baseILi8ELi8ELb0EL9ap_q_mode5EL9ap_o_mode3ELi0EEaSERKS2_(%struct.ap_int_base* %3, %struct.ap_int_base* %f_op), !dbg !9731 ; [#uses=0 type=%struct.ap_int_base*] [debug line = 786:9]
  ret void, !dbg !9732                            ; [debug line = 787:5]
}

; [#uses=1]
define linkonce_odr void @_ZN13ap_fixed_baseILi8ELi8ELb0EL9ap_q_mode5EL9ap_o_mode3ELi0EEC1Ev(%struct.ap_int_base* %this) unnamed_addr nounwind uwtable inlinehint alwaysinline align 2 {
  %1 = alloca %struct.ap_int_base*, align 8       ; [#uses=2 type=%struct.ap_int_base**]
  store %struct.ap_int_base* %this, %struct.ap_int_base** %1, align 8
  call void @llvm.dbg.declare(metadata !{%struct.ap_int_base** %1}, metadata !9733), !dbg !9734 ; [debug line = 653:43] [debug variable = this]
  %2 = load %struct.ap_int_base** %1              ; [#uses=1 type=%struct.ap_int_base*]
  call void @_ZN13ap_fixed_baseILi8ELi8ELb0EL9ap_q_mode5EL9ap_o_mode3ELi0EEC2Ev(%struct.ap_int_base* %2), !dbg !9735 ; [debug line = 660:5]
  ret void, !dbg !9735                            ; [debug line = 660:5]
}

; [#uses=1]
define linkonce_odr %struct.ap_int_base* @_ZN13ap_fixed_baseILi8ELi8ELb0EL9ap_q_mode5EL9ap_o_mode3ELi0EEaSERKS2_(%struct.ap_int_base* %this, %struct.ap_int_base* %op) nounwind uwtable inlinehint alwaysinline align 2 {
  %1 = alloca %struct.ap_int_base*, align 8       ; [#uses=2 type=%struct.ap_int_base**]
  %2 = alloca %struct.ap_int_base*, align 8       ; [#uses=2 type=%struct.ap_int_base**]
  store %struct.ap_int_base* %this, %struct.ap_int_base** %1, align 8
  call void @llvm.dbg.declare(metadata !{%struct.ap_int_base** %1}, metadata !9736), !dbg !9737 ; [debug line = 1022:58] [debug variable = this]
  store %struct.ap_int_base* %op, %struct.ap_int_base** %2, align 8
  call void @llvm.dbg.declare(metadata !{%struct.ap_int_base** %2}, metadata !9738), !dbg !9739 ; [debug line = 1023:63] [debug variable = op]
  %3 = load %struct.ap_int_base** %1              ; [#uses=2 type=%struct.ap_int_base*]
  %4 = load %struct.ap_int_base** %2, align 8, !dbg !9740 ; [#uses=1 type=%struct.ap_int_base*] [debug line = 1025:9]
  %5 = bitcast %struct.ap_int_base* %4 to %struct.ssdm_int.0*, !dbg !9740 ; [#uses=1 type=%struct.ssdm_int.0*] [debug line = 1025:9]
  %6 = getelementptr inbounds %struct.ssdm_int.0* %5, i32 0, i32 0, !dbg !9740 ; [#uses=1 type=i8*] [debug line = 1025:9]
  %7 = load i8* %6, align 1, !dbg !9740           ; [#uses=1 type=i8] [debug line = 1025:9]
  %8 = bitcast %struct.ap_int_base* %3 to %struct.ssdm_int.0*, !dbg !9740 ; [#uses=1 type=%struct.ssdm_int.0*] [debug line = 1025:9]
  %9 = getelementptr inbounds %struct.ssdm_int.0* %8, i32 0, i32 0, !dbg !9740 ; [#uses=1 type=i8*] [debug line = 1025:9]
  store i8 %7, i8* %9, align 1, !dbg !9740        ; [debug line = 1025:9]
  ret %struct.ap_int_base* %3, !dbg !9742         ; [debug line = 1026:9]
}

; [#uses=1]
define linkonce_odr void @_ZN13ap_fixed_baseILi8ELi8ELb0EL9ap_q_mode5EL9ap_o_mode3ELi0EEC2Ev(%struct.ap_int_base* %this) unnamed_addr nounwind uwtable inlinehint alwaysinline align 2 {
  %1 = alloca %struct.ap_int_base*, align 8       ; [#uses=2 type=%struct.ap_int_base**]
  store %struct.ap_int_base* %this, %struct.ap_int_base** %1, align 8
  call void @llvm.dbg.declare(metadata !{%struct.ap_int_base** %1}, metadata !9743), !dbg !9744 ; [debug line = 653:43] [debug variable = this]
  %2 = load %struct.ap_int_base** %1              ; [#uses=1 type=%struct.ap_int_base*]
  %3 = bitcast %struct.ap_int_base* %2 to %struct.ssdm_int.0*, !dbg !9745 ; [#uses=1 type=%struct.ssdm_int.0*] [debug line = 653:59]
  call void @_ZN8ssdm_intILi8ELb0EEC2Ev(%struct.ssdm_int.0* %3), !dbg !9745 ; [debug line = 653:59]
  ret void, !dbg !9746                            ; [debug line = 660:5]
}

; [#uses=1]
define linkonce_odr void @_ZN8ap_fixedILi28ELi18EL9ap_q_mode5EL9ap_o_mode3ELi0EEC2Ed(%struct.ap_fixed* %this, double %v) unnamed_addr nounwind uwtable inlinehint alwaysinline align 2 {
  %1 = alloca %struct.ap_fixed*, align 8          ; [#uses=2 type=%struct.ap_fixed**]
  %2 = alloca double, align 8                     ; [#uses=2 type=double*]
  store %struct.ap_fixed* %this, %struct.ap_fixed** %1, align 8
  call void @llvm.dbg.declare(metadata !{%struct.ap_fixed** %1}, metadata !9748), !dbg !9749 ; [debug line = 378:43] [debug variable = this]
  store double %v, double* %2, align 8
  call void @llvm.dbg.declare(metadata !{double* %2}, metadata !9750), !dbg !9751 ; [debug line = 378:59] [debug variable = v]
  %3 = load %struct.ap_fixed** %1                 ; [#uses=1 type=%struct.ap_fixed*]
  %4 = bitcast %struct.ap_fixed* %3 to %struct.ap_fixed_base*, !dbg !9752 ; [#uses=1 type=%struct.ap_fixed_base*] [debug line = 378:70]
  %5 = load double* %2, align 8, !dbg !9752       ; [#uses=1 type=double] [debug line = 378:70]
  call void @_ZN13ap_fixed_baseILi28ELi18ELb1EL9ap_q_mode5EL9ap_o_mode3ELi0EEC2Ed(%struct.ap_fixed_base* %4, double %5), !dbg !9752 ; [debug line = 378:70]
  ret void, !dbg !9753                            ; [debug line = 378:71]
}

; [#uses=1]
define linkonce_odr void @_ZN13ap_fixed_baseILi28ELi18ELb1EL9ap_q_mode5EL9ap_o_mode3ELi0EEC2Ed(%struct.ap_fixed_base* %this, double %d) unnamed_addr nounwind uwtable align 2 {
  %1 = alloca %struct.ap_fixed_base*, align 8     ; [#uses=2 type=%struct.ap_fixed_base**]
  %2 = alloca double, align 8                     ; [#uses=2 type=double*]
  %ireg = alloca %struct.ap_int_base.24, align 8  ; [#uses=6 type=%struct.ap_int_base.24*]
  %isneg = alloca i1, align 1                     ; [#uses=3 type=i1*]
  %__Result__ = alloca i64, align 8               ; [#uses=4 type=i64*]
  %__Val2__ = alloca i64, align 8                 ; [#uses=3 type=i64*]
  %exp = alloca %struct.ap_int_base.26, align 2   ; [#uses=3 type=%struct.ap_int_base.26*]
  %exp_tmp = alloca %struct.ap_int_base.28, align 2 ; [#uses=3 type=%struct.ap_int_base.28*]
  %__Result__1 = alloca i64, align 8              ; [#uses=4 type=i64*]
  %__Val2__2 = alloca i64, align 8                ; [#uses=3 type=i64*]
  %3 = alloca %struct.ap_int_base.30, align 8     ; [#uses=2 type=%struct.ap_int_base.30*]
  %man = alloca %struct.ap_int_base.32, align 8   ; [#uses=9 type=%struct.ap_int_base.32*]
  %__Result__3 = alloca i64, align 8              ; [#uses=4 type=i64*]
  %__Val2__4 = alloca i64, align 8                ; [#uses=3 type=i64*]
  %__Result__5 = alloca i54, align 8              ; [#uses=4 type=i54*]
  %__Val2__6 = alloca i54, align 8                ; [#uses=3 type=i54*]
  %__Repl2__ = alloca i32, align 4                ; [#uses=3 type=i32*]
  %4 = alloca %struct.ap_int_base.34, align 8     ; [#uses=2 type=%struct.ap_int_base.34*]
  %_AP_W2 = alloca i32, align 4                   ; [#uses=2 type=i32*]
  %_AP_I2 = alloca i32, align 4                   ; [#uses=2 type=i32*]
  %_AP_F = alloca i32, align 4                    ; [#uses=7 type=i32*]
  %F2 = alloca i32, align 4                       ; [#uses=7 type=i32*]
  %_AP_S2 = alloca i1, align 1                    ; [#uses=1 type=i1*]
  %QUAN_INC = alloca i1, align 1                  ; [#uses=1 type=i1*]
  %carry = alloca i1, align 1                     ; [#uses=1 type=i1*]
  %sh_amt = alloca i32, align 4                   ; [#uses=5 type=i32*]
  store %struct.ap_fixed_base* %this, %struct.ap_fixed_base** %1, align 8
  call void @llvm.dbg.declare(metadata !{%struct.ap_fixed_base** %1}, metadata !9755), !dbg !9756 ; [debug line = 901:31] [debug variable = this]
  store double %d, double* %2, align 8
  call void @llvm.dbg.declare(metadata !{double* %2}, metadata !9757), !dbg !9758 ; [debug line = 901:52] [debug variable = d]
  %5 = load %struct.ap_fixed_base** %1            ; [#uses=11 type=%struct.ap_fixed_base*]
  %6 = bitcast %struct.ap_fixed_base* %5 to %struct.ssdm_int*, !dbg !9759 ; [#uses=1 type=%struct.ssdm_int*] [debug line = 901:55]
  call void @_ZN8ssdm_intILi28ELb1EEC2Ev(%struct.ssdm_int* %6), !dbg !9759 ; [debug line = 901:55]
  call void (...)* @_ssdm_InlineSelf(i32 0, i8* getelementptr inbounds ([1 x i8]* @.str, i32 0, i32 0)) nounwind, !dbg !9760 ; [debug line = 903:1]
  call void @llvm.dbg.declare(metadata !{%struct.ap_int_base.24* %ireg}, metadata !9762), !dbg !9763 ; [debug line = 905:31] [debug variable = ireg]
  call void @_ZN11ap_int_baseILi64ELb0ELb1EEC1Ev(%struct.ap_int_base.24* %ireg), !dbg !9764 ; [debug line = 905:35]
  %7 = load double* %2, align 8, !dbg !9765       ; [#uses=1 type=double] [debug line = 906:18]
  %8 = call i64 @_ZNK13ap_fixed_baseILi28ELi18ELb1EL9ap_q_mode5EL9ap_o_mode3ELi0EE15doubleToRawBitsEd(%struct.ap_fixed_base* %5, double %7), !dbg !9765 ; [#uses=1 type=i64] [debug line = 906:18]
  %9 = bitcast %struct.ap_int_base.24* %ireg to %"class.std::locale::id"*, !dbg !9765 ; [#uses=1 type=%"class.std::locale::id"*] [debug line = 906:18]
  %10 = getelementptr inbounds %"class.std::locale::id"* %9, i32 0, i32 0, !dbg !9765 ; [#uses=1 type=i64*] [debug line = 906:18]
  store i64 %8, i64* %10, align 8, !dbg !9765     ; [debug line = 906:18]
  call void @llvm.dbg.declare(metadata !{i1* %isneg}, metadata !9766), !dbg !9767 ; [debug line = 907:14] [debug variable = isneg]
  call void @llvm.dbg.declare(metadata !{i64* %__Result__}, metadata !9768), !dbg !9770 ; [debug line = 907:40] [debug variable = __Result__]
  store i64 0, i64* %__Result__, align 8, !dbg !9771 ; [debug line = 907:54]
  call void @llvm.dbg.declare(metadata !{i64* %__Val2__}, metadata !9772), !dbg !9773 ; [debug line = 907:71] [debug variable = __Val2__]
  %11 = bitcast %struct.ap_int_base.24* %ireg to %"class.std::locale::id"*, !dbg !9774 ; [#uses=1 type=%"class.std::locale::id"*] [debug line = 907:88]
  %12 = getelementptr inbounds %"class.std::locale::id"* %11, i32 0, i32 0, !dbg !9774 ; [#uses=1 type=i64*] [debug line = 907:88]
  %13 = load i64* %12, align 8, !dbg !9774        ; [#uses=1 type=i64] [debug line = 907:88]
  store i64 %13, i64* %__Val2__, align 8, !dbg !9774 ; [debug line = 907:88]
  %14 = bitcast i64* %__Result__ to i8*, !dbg !9775 ; [#uses=0 type=i8*] [debug line = 907:90]
  %15 = bitcast i64* %__Val2__ to i8*, !dbg !9775 ; [#uses=0 type=i8*] [debug line = 907:90]
  %16 = load i64* %__Val2__, !dbg !9775           ; [#uses=1 type=i64] [debug line = 907:90]
  %17 = call i64 @llvm.part.select.i64(i64 %16, i32 63, i32 63), !dbg !9775 ; [#uses=1 type=i64] [debug line = 907:90]
  store i64 %17, i64* %__Result__, !dbg !9775     ; [debug line = 907:90]
  %18 = load i64* %__Result__, align 8, !dbg !9775 ; [#uses=1 type=i64] [debug line = 907:90]
  %19 = and i64 %18, 1, !dbg !9775                ; [#uses=1 type=i64] [debug line = 907:90]
  %20 = icmp ne i64 %19, 0, !dbg !9775            ; [#uses=1 type=i1] [debug line = 907:90]
  store i1 %20, i1* %isneg, align 1, !dbg !9776   ; [debug line = 907:191]
  call void @llvm.dbg.declare(metadata !{%struct.ap_int_base.26* %exp}, metadata !9777), !dbg !9778 ; [debug line = 909:35] [debug variable = exp]
  call void @_ZN11ap_int_baseILi12ELb1ELb1EEC1Ev(%struct.ap_int_base.26* %exp), !dbg !9779 ; [debug line = 909:38]
  call void @llvm.dbg.declare(metadata !{%struct.ap_int_base.28* %exp_tmp}, metadata !9780), !dbg !9781 ; [debug line = 910:32] [debug variable = exp_tmp]
  call void @_ZN11ap_int_baseILi11ELb0ELb1EEC1Ev(%struct.ap_int_base.28* %exp_tmp), !dbg !9782 ; [debug line = 910:39]
  call void @llvm.dbg.declare(metadata !{i64* %__Result__1}, metadata !9783), !dbg !9785 ; [debug line = 911:39] [debug variable = __Result__]
  store i64 0, i64* %__Result__1, align 8, !dbg !9786 ; [debug line = 911:53]
  call void @llvm.dbg.declare(metadata !{i64* %__Val2__2}, metadata !9787), !dbg !9788 ; [debug line = 911:70] [debug variable = __Val2__]
  %21 = bitcast %struct.ap_int_base.24* %ireg to %"class.std::locale::id"*, !dbg !9789 ; [#uses=1 type=%"class.std::locale::id"*] [debug line = 911:87]
  %22 = getelementptr inbounds %"class.std::locale::id"* %21, i32 0, i32 0, !dbg !9789 ; [#uses=1 type=i64*] [debug line = 911:87]
  %23 = load i64* %22, align 8, !dbg !9789        ; [#uses=1 type=i64] [debug line = 911:87]
  store i64 %23, i64* %__Val2__2, align 8, !dbg !9789 ; [debug line = 911:87]
  %24 = bitcast i64* %__Result__1 to i8*, !dbg !9790 ; [#uses=0 type=i8*] [debug line = 911:89]
  %25 = bitcast i64* %__Val2__2 to i8*, !dbg !9790 ; [#uses=0 type=i8*] [debug line = 911:89]
  %26 = load i64* %__Val2__2, !dbg !9790          ; [#uses=1 type=i64] [debug line = 911:89]
  %27 = call i64 @llvm.part.select.i64(i64 %26, i32 52, i32 62), !dbg !9790 ; [#uses=1 type=i64] [debug line = 911:89]
  store i64 %27, i64* %__Result__1, !dbg !9790    ; [debug line = 911:89]
  %28 = load i64* %__Result__1, align 8, !dbg !9790 ; [#uses=1 type=i64] [debug line = 911:89]
  %29 = trunc i64 %28 to i11, !dbg !9791          ; [#uses=1 type=i11] [debug line = 911:186]
  %30 = bitcast %struct.ap_int_base.28* %exp_tmp to %struct.ssdm_int.29*, !dbg !9791 ; [#uses=1 type=%struct.ssdm_int.29*] [debug line = 911:186]
  %31 = getelementptr inbounds %struct.ssdm_int.29* %30, i32 0, i32 0, !dbg !9791 ; [#uses=1 type=i11*] [debug line = 911:186]
  store i11 %29, i11* %31, align 2, !dbg !9791    ; [debug line = 911:186]
  call void @_ZmiILi11ELb0EEN11ap_int_baseIXT_EXT0_EXleT_Li64EEE5RTypeIXLi32EEXLb1EEE5minusERKS1_i(%struct.ap_int_base.30* sret %3, %struct.ap_int_base.28* %exp_tmp, i32 1023), !dbg !9792 ; [debug line = 913:15]
  %32 = call %struct.ap_int_base.26* @_ZN11ap_int_baseILi12ELb1ELb1EEaSILi33ELb1EEERS0_RKS_IXT_EXT0_EXleT_Li64EEE(%struct.ap_int_base.26* %exp, %struct.ap_int_base.30* %3), !dbg !9792 ; [#uses=0 type=%struct.ap_int_base.26*] [debug line = 913:15]
  call void @llvm.dbg.declare(metadata !{%struct.ap_int_base.32* %man}, metadata !9793), !dbg !9794 ; [debug line = 914:35] [debug variable = man]
  call void @_ZN11ap_int_baseILi54ELb1ELb1EEC1Ev(%struct.ap_int_base.32* %man), !dbg !9795 ; [debug line = 914:38]
  call void @llvm.dbg.declare(metadata !{i64* %__Result__3}, metadata !9796), !dbg !9798 ; [debug line = 915:35] [debug variable = __Result__]
  store i64 0, i64* %__Result__3, align 8, !dbg !9799 ; [debug line = 915:49]
  call void @llvm.dbg.declare(metadata !{i64* %__Val2__4}, metadata !9800), !dbg !9801 ; [debug line = 915:66] [debug variable = __Val2__]
  %33 = bitcast %struct.ap_int_base.24* %ireg to %"class.std::locale::id"*, !dbg !9802 ; [#uses=1 type=%"class.std::locale::id"*] [debug line = 915:83]
  %34 = getelementptr inbounds %"class.std::locale::id"* %33, i32 0, i32 0, !dbg !9802 ; [#uses=1 type=i64*] [debug line = 915:83]
  %35 = load i64* %34, align 8, !dbg !9802        ; [#uses=1 type=i64] [debug line = 915:83]
  store i64 %35, i64* %__Val2__4, align 8, !dbg !9802 ; [debug line = 915:83]
  %36 = bitcast i64* %__Result__3 to i8*, !dbg !9803 ; [#uses=0 type=i8*] [debug line = 915:85]
  %37 = bitcast i64* %__Val2__4 to i8*, !dbg !9803 ; [#uses=0 type=i8*] [debug line = 915:85]
  %38 = load i64* %__Val2__4, !dbg !9803          ; [#uses=1 type=i64] [debug line = 915:85]
  %39 = call i64 @llvm.part.select.i64(i64 %38, i32 0, i32 51), !dbg !9803 ; [#uses=1 type=i64] [debug line = 915:85]
  store i64 %39, i64* %__Result__3, !dbg !9803    ; [debug line = 915:85]
  %40 = load i64* %__Result__3, align 8, !dbg !9803 ; [#uses=1 type=i64] [debug line = 915:85]
  %41 = trunc i64 %40 to i54, !dbg !9804          ; [#uses=1 type=i54] [debug line = 915:177]
  %42 = bitcast %struct.ap_int_base.32* %man to %struct.ssdm_int.33*, !dbg !9804 ; [#uses=1 type=%struct.ssdm_int.33*] [debug line = 915:177]
  %43 = getelementptr inbounds %struct.ssdm_int.33* %42, i32 0, i32 0, !dbg !9804 ; [#uses=1 type=i54*] [debug line = 915:177]
  store i54 %41, i54* %43, align 8, !dbg !9804    ; [debug line = 915:177]
  call void @llvm.dbg.declare(metadata !{i54* %__Result__5}, metadata !9805), !dbg !9807 ; [debug line = 919:34] [debug variable = __Result__]
  store i54 0, i54* %__Result__5, align 8, !dbg !9808 ; [debug line = 919:48]
  call void @llvm.dbg.declare(metadata !{i54* %__Val2__6}, metadata !9809), !dbg !9810 ; [debug line = 919:64] [debug variable = __Val2__]
  %44 = bitcast %struct.ap_int_base.32* %man to %struct.ssdm_int.33*, !dbg !9811 ; [#uses=1 type=%struct.ssdm_int.33*] [debug line = 919:80]
  %45 = getelementptr inbounds %struct.ssdm_int.33* %44, i32 0, i32 0, !dbg !9811 ; [#uses=1 type=i54*] [debug line = 919:80]
  %46 = load i54* %45, align 8, !dbg !9811        ; [#uses=1 type=i54] [debug line = 919:80]
  store i54 %46, i54* %__Val2__6, align 8, !dbg !9811 ; [debug line = 919:80]
  call void @llvm.dbg.declare(metadata !{i32* %__Repl2__}, metadata !9812), !dbg !9813 ; [debug line = 919:92] [debug variable = __Repl2__]
  store i32 1, i32* %__Repl2__, align 4, !dbg !9814 ; [debug line = 919:107]
  %47 = bitcast i54* %__Result__5 to i8*, !dbg !9815 ; [#uses=0 type=i8*] [debug line = 919:109]
  %48 = bitcast i54* %__Val2__6 to i8*, !dbg !9815 ; [#uses=0 type=i8*] [debug line = 919:109]
  %49 = bitcast i32* %__Repl2__ to i8*, !dbg !9815 ; [#uses=0 type=i8*] [debug line = 919:109]
  %50 = load i54* %__Val2__6, !dbg !9815          ; [#uses=1 type=i54] [debug line = 919:109]
  %51 = load i32* %__Repl2__, !dbg !9815          ; [#uses=1 type=i32] [debug line = 919:109]
  %52 = call i54 @llvm.part.set.i54.i32(i54 %50, i32 %51, i32 52, i32 52), !dbg !9815 ; [#uses=1 type=i54] [debug line = 919:109]
  store i54 %52, i54* %__Result__5, !dbg !9815    ; [debug line = 919:109]
  %53 = load i54* %__Result__5, align 8, !dbg !9815 ; [#uses=1 type=i54] [debug line = 919:109]
  %54 = bitcast %struct.ap_int_base.32* %man to %struct.ssdm_int.33*, !dbg !9816 ; [#uses=1 type=%struct.ssdm_int.33*] [debug line = 919:216]
  %55 = getelementptr inbounds %struct.ssdm_int.33* %54, i32 0, i32 0, !dbg !9816 ; [#uses=1 type=i54*] [debug line = 919:216]
  store i54 %53, i54* %55, align 8, !dbg !9816    ; [debug line = 919:216]
  %56 = load i1* %isneg, align 1, !dbg !9817      ; [#uses=1 type=i1] [debug line = 920:9]
  br i1 %56, label %57, label %59, !dbg !9817     ; [debug line = 920:9]

; <label>:57                                      ; preds = %0
  call void @_ZNK11ap_int_baseILi54ELb1ELb1EEngEv(%struct.ap_int_base.34* sret %4, %struct.ap_int_base.32* %man), !dbg !9818 ; [debug line = 920:25]
  %58 = call %struct.ap_int_base.32* @_ZN11ap_int_baseILi54ELb1ELb1EEaSILi55ELb1EEERS0_RKS_IXT_EXT0_EXleT_Li64EEE(%struct.ap_int_base.32* %man, %struct.ap_int_base.34* %4), !dbg !9818 ; [#uses=0 type=%struct.ap_int_base.32*] [debug line = 920:25]
  br label %59, !dbg !9818                        ; [debug line = 920:25]

; <label>:59                                      ; preds = %57, %0
  %60 = bitcast %struct.ap_int_base.24* %ireg to %"class.std::locale::id"*, !dbg !9819 ; [#uses=1 type=%"class.std::locale::id"*] [debug line = 921:9]
  %61 = getelementptr inbounds %"class.std::locale::id"* %60, i32 0, i32 0, !dbg !9819 ; [#uses=1 type=i64*] [debug line = 921:9]
  %62 = load i64* %61, align 8, !dbg !9819        ; [#uses=1 type=i64] [debug line = 921:9]
  %63 = and i64 %62, 9223372036854775807, !dbg !9819 ; [#uses=1 type=i64] [debug line = 921:9]
  %64 = icmp eq i64 %63, 0, !dbg !9819            ; [#uses=1 type=i1] [debug line = 921:9]
  br i1 %64, label %65, label %68, !dbg !9819     ; [debug line = 921:9]

; <label>:65                                      ; preds = %59
  %66 = bitcast %struct.ap_fixed_base* %5 to %struct.ssdm_int*, !dbg !9820 ; [#uses=1 type=%struct.ssdm_int*] [debug line = 922:13]
  %67 = getelementptr inbounds %struct.ssdm_int* %66, i32 0, i32 0, !dbg !9820 ; [#uses=1 type=i28*] [debug line = 922:13]
  store i28 0, i28* %67, align 4, !dbg !9820      ; [debug line = 922:13]
  br label %160, !dbg !9822                       ; [debug line = 923:9]

; <label>:68                                      ; preds = %59
  call void @llvm.dbg.declare(metadata !{i32* %_AP_W2}, metadata !9823), !dbg !9825 ; [debug line = 924:17] [debug variable = _AP_W2]
  store i32 54, i32* %_AP_W2, align 4, !dbg !9826 ; [debug line = 924:82]
  call void @llvm.dbg.declare(metadata !{i32* %_AP_I2}, metadata !9827), !dbg !9828 ; [debug line = 924:31] [debug variable = _AP_I2]
  %69 = bitcast %struct.ap_int_base.26* %exp to %struct.ssdm_int.27*, !dbg !9826 ; [#uses=1 type=%struct.ssdm_int.27*] [debug line = 924:82]
  %70 = getelementptr inbounds %struct.ssdm_int.27* %69, i32 0, i32 0, !dbg !9826 ; [#uses=1 type=i12*] [debug line = 924:82]
  %71 = load i12* %70, align 2, !dbg !9826        ; [#uses=1 type=i12] [debug line = 924:82]
  %72 = sext i12 %71 to i32, !dbg !9826           ; [#uses=1 type=i32] [debug line = 924:82]
  %73 = add nsw i32 %72, 2, !dbg !9826            ; [#uses=1 type=i32] [debug line = 924:82]
  store i32 %73, i32* %_AP_I2, align 4, !dbg !9826 ; [debug line = 924:82]
  call void @llvm.dbg.declare(metadata !{i32* %_AP_F}, metadata !9829), !dbg !9830 ; [debug line = 924:47] [debug variable = _AP_F]
  store i32 10, i32* %_AP_F, align 4, !dbg !9826  ; [debug line = 924:82]
  call void @llvm.dbg.declare(metadata !{i32* %F2}, metadata !9831), !dbg !9832 ; [debug line = 924:66] [debug variable = F2]
  %74 = load i32* %_AP_W2, align 4, !dbg !9826    ; [#uses=1 type=i32] [debug line = 924:82]
  %75 = load i32* %_AP_I2, align 4, !dbg !9826    ; [#uses=1 type=i32] [debug line = 924:82]
  %76 = sub nsw i32 %74, %75, !dbg !9826          ; [#uses=1 type=i32] [debug line = 924:82]
  store i32 %76, i32* %F2, align 4, !dbg !9826    ; [debug line = 924:82]
  call void @llvm.dbg.declare(metadata !{i1* %_AP_S2}, metadata !9833), !dbg !9834 ; [debug line = 925:18] [debug variable = _AP_S2]
  store i1 true, i1* %_AP_S2, align 1, !dbg !9835 ; [debug line = 926:92]
  call void @llvm.dbg.declare(metadata !{i1* %QUAN_INC}, metadata !9836), !dbg !9837 ; [debug line = 926:18] [debug variable = QUAN_INC]
  %77 = load i32* %F2, align 4, !dbg !9835        ; [#uses=1 type=i32] [debug line = 926:92]
  %78 = load i32* %_AP_F, align 4, !dbg !9835     ; [#uses=1 type=i32] [debug line = 926:92]
  %79 = icmp sgt i32 %77, %78, !dbg !9835         ; [#uses=1 type=i1] [debug line = 926:92]
  br i1 %79, label %80, label %81, !dbg !9835     ; [debug line = 926:92]

; <label>:80                                      ; preds = %68
  br label %81

; <label>:81                                      ; preds = %80, %68
  %82 = phi i1 [ false, %68 ], [ false, %80 ]     ; [#uses=1 type=i1]
  store i1 %82, i1* %QUAN_INC, align 1
  call void @llvm.dbg.declare(metadata !{i1* %carry}, metadata !9838), !dbg !9839 ; [debug line = 927:18] [debug variable = carry]
  store i1 false, i1* %carry, align 1, !dbg !9840 ; [debug line = 927:31]
  call void @llvm.dbg.declare(metadata !{i32* %sh_amt}, metadata !9841), !dbg !9842 ; [debug line = 929:22] [debug variable = sh_amt]
  %83 = load i32* %F2, align 4, !dbg !9843        ; [#uses=1 type=i32] [debug line = 929:69]
  %84 = load i32* %_AP_F, align 4, !dbg !9843     ; [#uses=1 type=i32] [debug line = 929:69]
  %85 = icmp sgt i32 %83, %84, !dbg !9843         ; [#uses=1 type=i1] [debug line = 929:69]
  br i1 %85, label %86, label %90, !dbg !9843     ; [debug line = 929:69]

; <label>:86                                      ; preds = %81
  %87 = load i32* %F2, align 4, !dbg !9843        ; [#uses=1 type=i32] [debug line = 929:69]
  %88 = load i32* %_AP_F, align 4, !dbg !9843     ; [#uses=1 type=i32] [debug line = 929:69]
  %89 = sub nsw i32 %87, %88, !dbg !9843          ; [#uses=1 type=i32] [debug line = 929:69]
  br label %94, !dbg !9843                        ; [debug line = 929:69]

; <label>:90                                      ; preds = %81
  %91 = load i32* %_AP_F, align 4, !dbg !9843     ; [#uses=1 type=i32] [debug line = 929:69]
  %92 = load i32* %F2, align 4, !dbg !9843        ; [#uses=1 type=i32] [debug line = 929:69]
  %93 = sub nsw i32 %91, %92, !dbg !9843          ; [#uses=1 type=i32] [debug line = 929:69]
  br label %94, !dbg !9843                        ; [debug line = 929:69]

; <label>:94                                      ; preds = %90, %86
  %95 = phi i32 [ %89, %86 ], [ %93, %90 ], !dbg !9843 ; [#uses=1 type=i32] [debug line = 929:69]
  store i32 %95, i32* %sh_amt, align 4, !dbg !9843 ; [debug line = 929:69]
  %96 = load i32* %F2, align 4, !dbg !9844        ; [#uses=1 type=i32] [debug line = 930:13]
  %97 = load i32* %_AP_F, align 4, !dbg !9844     ; [#uses=1 type=i32] [debug line = 930:13]
  %98 = icmp eq i32 %96, %97, !dbg !9844          ; [#uses=1 type=i1] [debug line = 930:13]
  br i1 %98, label %99, label %106, !dbg !9844    ; [debug line = 930:13]

; <label>:99                                      ; preds = %94
  %100 = bitcast %struct.ap_int_base.32* %man to %struct.ssdm_int.33*, !dbg !9845 ; [#uses=1 type=%struct.ssdm_int.33*] [debug line = 931:17]
  %101 = getelementptr inbounds %struct.ssdm_int.33* %100, i32 0, i32 0, !dbg !9845 ; [#uses=1 type=i54*] [debug line = 931:17]
  %102 = load i54* %101, align 8, !dbg !9845      ; [#uses=1 type=i54] [debug line = 931:17]
  %103 = trunc i54 %102 to i28, !dbg !9845        ; [#uses=1 type=i28] [debug line = 931:17]
  %104 = bitcast %struct.ap_fixed_base* %5 to %struct.ssdm_int*, !dbg !9845 ; [#uses=1 type=%struct.ssdm_int*] [debug line = 931:17]
  %105 = getelementptr inbounds %struct.ssdm_int* %104, i32 0, i32 0, !dbg !9845 ; [#uses=1 type=i28*] [debug line = 931:17]
  store i28 %103, i28* %105, align 4, !dbg !9845  ; [debug line = 931:17]
  br label %159, !dbg !9845                       ; [debug line = 931:17]

; <label>:106                                     ; preds = %94
  %107 = load i32* %F2, align 4, !dbg !9846       ; [#uses=1 type=i32] [debug line = 932:18]
  %108 = load i32* %_AP_F, align 4, !dbg !9846    ; [#uses=1 type=i32] [debug line = 932:18]
  %109 = icmp sgt i32 %107, %108, !dbg !9846      ; [#uses=1 type=i1] [debug line = 932:18]
  br i1 %109, label %110, label %135, !dbg !9846  ; [debug line = 932:18]

; <label>:110                                     ; preds = %106
  %111 = load i32* %sh_amt, align 4, !dbg !9847   ; [#uses=1 type=i32] [debug line = 933:17]
  %112 = icmp ult i32 %111, 54, !dbg !9847        ; [#uses=1 type=i1] [debug line = 933:17]
  br i1 %112, label %113, label %123, !dbg !9847  ; [debug line = 933:17]

; <label>:113                                     ; preds = %110
  %114 = bitcast %struct.ap_int_base.32* %man to %struct.ssdm_int.33*, !dbg !9849 ; [#uses=1 type=%struct.ssdm_int.33*] [debug line = 934:20]
  %115 = getelementptr inbounds %struct.ssdm_int.33* %114, i32 0, i32 0, !dbg !9849 ; [#uses=1 type=i54*] [debug line = 934:20]
  %116 = load i54* %115, align 8, !dbg !9849      ; [#uses=1 type=i54] [debug line = 934:20]
  %117 = load i32* %sh_amt, align 4, !dbg !9849   ; [#uses=1 type=i32] [debug line = 934:20]
  %118 = zext i32 %117 to i54, !dbg !9849         ; [#uses=1 type=i54] [debug line = 934:20]
  %119 = ashr i54 %116, %118, !dbg !9849          ; [#uses=1 type=i54] [debug line = 934:20]
  %120 = trunc i54 %119 to i28, !dbg !9849        ; [#uses=1 type=i28] [debug line = 934:20]
  %121 = bitcast %struct.ap_fixed_base* %5 to %struct.ssdm_int*, !dbg !9849 ; [#uses=1 type=%struct.ssdm_int*] [debug line = 934:20]
  %122 = getelementptr inbounds %struct.ssdm_int* %121, i32 0, i32 0, !dbg !9849 ; [#uses=1 type=i28*] [debug line = 934:20]
  store i28 %120, i28* %122, align 4, !dbg !9849  ; [debug line = 934:20]
  br label %134, !dbg !9849                       ; [debug line = 934:20]

; <label>:123                                     ; preds = %110
  %124 = load i1* %isneg, align 1, !dbg !9850     ; [#uses=1 type=i1] [debug line = 937:20]
  br i1 %124, label %125, label %130, !dbg !9850  ; [debug line = 937:20]

; <label>:125                                     ; preds = %123
  %126 = load i32* @_ZZN13ap_fixed_baseILi28ELi18ELb1EL9ap_q_mode5EL9ap_o_mode3ELi0EEC1EdE10AllOnesInt, align 4, !dbg !9852 ; [#uses=1 type=i32] [debug line = 937:31]
  %127 = trunc i32 %126 to i28, !dbg !9852        ; [#uses=1 type=i28] [debug line = 937:31]
  %128 = bitcast %struct.ap_fixed_base* %5 to %struct.ssdm_int*, !dbg !9852 ; [#uses=1 type=%struct.ssdm_int*] [debug line = 937:31]
  %129 = getelementptr inbounds %struct.ssdm_int* %128, i32 0, i32 0, !dbg !9852 ; [#uses=1 type=i28*] [debug line = 937:31]
  store i28 %127, i28* %129, align 4, !dbg !9852  ; [debug line = 937:31]
  br label %133, !dbg !9852                       ; [debug line = 937:31]

; <label>:130                                     ; preds = %123
  %131 = bitcast %struct.ap_fixed_base* %5 to %struct.ssdm_int*, !dbg !9853 ; [#uses=1 type=%struct.ssdm_int*] [debug line = 938:25]
  %132 = getelementptr inbounds %struct.ssdm_int* %131, i32 0, i32 0, !dbg !9853 ; [#uses=1 type=i28*] [debug line = 938:25]
  store i28 0, i28* %132, align 4, !dbg !9853     ; [debug line = 938:25]
  br label %133

; <label>:133                                     ; preds = %130, %125
  br label %134

; <label>:134                                     ; preds = %133, %113
  br label %158, !dbg !9854                       ; [debug line = 949:13]

; <label>:135                                     ; preds = %106
  %136 = bitcast %struct.ap_int_base.32* %man to %struct.ssdm_int.33*, !dbg !9855 ; [#uses=1 type=%struct.ssdm_int.33*] [debug line = 951:17]
  %137 = getelementptr inbounds %struct.ssdm_int.33* %136, i32 0, i32 0, !dbg !9855 ; [#uses=1 type=i54*] [debug line = 951:17]
  %138 = load i54* %137, align 8, !dbg !9855      ; [#uses=1 type=i54] [debug line = 951:17]
  %139 = trunc i54 %138 to i28, !dbg !9855        ; [#uses=1 type=i28] [debug line = 951:17]
  %140 = bitcast %struct.ap_fixed_base* %5 to %struct.ssdm_int*, !dbg !9855 ; [#uses=1 type=%struct.ssdm_int*] [debug line = 951:17]
  %141 = getelementptr inbounds %struct.ssdm_int* %140, i32 0, i32 0, !dbg !9855 ; [#uses=1 type=i28*] [debug line = 951:17]
  store i28 %139, i28* %141, align 4, !dbg !9855  ; [debug line = 951:17]
  %142 = load i32* %sh_amt, align 4, !dbg !9857   ; [#uses=1 type=i32] [debug line = 952:17]
  %143 = icmp ult i32 %142, 28, !dbg !9857        ; [#uses=1 type=i1] [debug line = 952:17]
  br i1 %143, label %144, label %154, !dbg !9857  ; [debug line = 952:17]

; <label>:144                                     ; preds = %135
  %145 = bitcast %struct.ap_fixed_base* %5 to %struct.ssdm_int*, !dbg !9858 ; [#uses=1 type=%struct.ssdm_int*] [debug line = 953:21]
  %146 = getelementptr inbounds %struct.ssdm_int* %145, i32 0, i32 0, !dbg !9858 ; [#uses=1 type=i28*] [debug line = 953:21]
  %147 = load i28* %146, align 4, !dbg !9858      ; [#uses=1 type=i28] [debug line = 953:21]
  %148 = sext i28 %147 to i32, !dbg !9858         ; [#uses=1 type=i32] [debug line = 953:21]
  %149 = load i32* %sh_amt, align 4, !dbg !9858   ; [#uses=1 type=i32] [debug line = 953:21]
  %150 = shl i32 %148, %149, !dbg !9858           ; [#uses=1 type=i32] [debug line = 953:21]
  %151 = trunc i32 %150 to i28, !dbg !9858        ; [#uses=1 type=i28] [debug line = 953:21]
  %152 = bitcast %struct.ap_fixed_base* %5 to %struct.ssdm_int*, !dbg !9858 ; [#uses=1 type=%struct.ssdm_int*] [debug line = 953:21]
  %153 = getelementptr inbounds %struct.ssdm_int* %152, i32 0, i32 0, !dbg !9858 ; [#uses=1 type=i28*] [debug line = 953:21]
  store i28 %151, i28* %153, align 4, !dbg !9858  ; [debug line = 953:21]
  br label %157, !dbg !9858                       ; [debug line = 953:21]

; <label>:154                                     ; preds = %135
  %155 = bitcast %struct.ap_fixed_base* %5 to %struct.ssdm_int*, !dbg !9859 ; [#uses=1 type=%struct.ssdm_int*] [debug line = 955:21]
  %156 = getelementptr inbounds %struct.ssdm_int* %155, i32 0, i32 0, !dbg !9859 ; [#uses=1 type=i28*] [debug line = 955:21]
  store i28 0, i28* %156, align 4, !dbg !9859     ; [debug line = 955:21]
  br label %157

; <label>:157                                     ; preds = %154, %144
  br label %158

; <label>:158                                     ; preds = %157, %134
  br label %159

; <label>:159                                     ; preds = %158, %99
  br label %160

; <label>:160                                     ; preds = %159, %65
  ret void, !dbg !9860                            ; [debug line = 1012:5]
}

; [#uses=1]
define linkonce_odr void @_ZN11ap_int_baseILi64ELb0ELb1EEC1Ev(%struct.ap_int_base.24* %this) unnamed_addr nounwind uwtable inlinehint alwaysinline align 2 {
  %1 = alloca %struct.ap_int_base.24*, align 8    ; [#uses=2 type=%struct.ap_int_base.24**]
  store %struct.ap_int_base.24* %this, %struct.ap_int_base.24** %1, align 8
  call void @llvm.dbg.declare(metadata !{%struct.ap_int_base.24** %1}, metadata !9861), !dbg !9862 ; [debug line = 1439:42] [debug variable = this]
  %2 = load %struct.ap_int_base.24** %1           ; [#uses=1 type=%struct.ap_int_base.24*]
  call void @_ZN11ap_int_baseILi64ELb0ELb1EEC2Ev(%struct.ap_int_base.24* %2), !dbg !9863 ; [debug line = 1445:4]
  ret void, !dbg !9863                            ; [debug line = 1445:4]
}

; [#uses=1]
define linkonce_odr i64 @_ZNK13ap_fixed_baseILi28ELi18ELb1EL9ap_q_mode5EL9ap_o_mode3ELi0EE15doubleToRawBitsEd(%struct.ap_fixed_base* %this, double %pf) nounwind uwtable inlinehint alwaysinline align 2 {
  %1 = alloca %struct.ap_fixed_base*, align 8     ; [#uses=2 type=%struct.ap_fixed_base**]
  %2 = alloca double, align 8                     ; [#uses=2 type=double*]
  %LD = alloca %"class.std::locale::id", align 8  ; [#uses=2 type=%"class.std::locale::id"*]
  store %struct.ap_fixed_base* %this, %struct.ap_fixed_base** %1, align 8
  call void @llvm.dbg.declare(metadata !{%struct.ap_fixed_base** %1}, metadata !9864), !dbg !9865 ; [debug line = 849:62] [debug variable = this]
  store double %pf, double* %2, align 8
  call void @llvm.dbg.declare(metadata !{double* %2}, metadata !9866), !dbg !9867 ; [debug line = 849:85] [debug variable = pf]
  %3 = load %struct.ap_fixed_base** %1            ; [#uses=0 type=%struct.ap_fixed_base*]
  call void @llvm.dbg.declare(metadata !{%"class.std::locale::id"* %LD}, metadata !9868), !dbg !9878 ; [debug line = 853:11] [debug variable = LD]
  %4 = load double* %2, align 8, !dbg !9879       ; [#uses=1 type=double] [debug line = 854:9]
  %5 = bitcast %"class.std::locale::id"* %LD to double*, !dbg !9879 ; [#uses=1 type=double*] [debug line = 854:9]
  store double %4, double* %5, align 8, !dbg !9879 ; [debug line = 854:9]
  %6 = bitcast %"class.std::locale::id"* %LD to i64*, !dbg !9880 ; [#uses=1 type=i64*] [debug line = 855:9]
  %7 = load i64* %6, align 8, !dbg !9880          ; [#uses=1 type=i64] [debug line = 855:9]
  ret i64 %7, !dbg !9880                          ; [debug line = 855:9]
}

; [#uses=3]
declare i64 @llvm.part.select.i64(i64, i32, i32) nounwind readnone

; [#uses=1]
define linkonce_odr void @_ZN11ap_int_baseILi12ELb1ELb1EEC1Ev(%struct.ap_int_base.26* %this) unnamed_addr nounwind uwtable inlinehint alwaysinline align 2 {
  %1 = alloca %struct.ap_int_base.26*, align 8    ; [#uses=2 type=%struct.ap_int_base.26**]
  store %struct.ap_int_base.26* %this, %struct.ap_int_base.26** %1, align 8
  call void @llvm.dbg.declare(metadata !{%struct.ap_int_base.26** %1}, metadata !9881), !dbg !9883 ; [debug line = 1439:42] [debug variable = this]
  %2 = load %struct.ap_int_base.26** %1           ; [#uses=1 type=%struct.ap_int_base.26*]
  call void @_ZN11ap_int_baseILi12ELb1ELb1EEC2Ev(%struct.ap_int_base.26* %2), !dbg !9884 ; [debug line = 1445:4]
  ret void, !dbg !9884                            ; [debug line = 1445:4]
}

; [#uses=1]
define linkonce_odr void @_ZN11ap_int_baseILi11ELb0ELb1EEC1Ev(%struct.ap_int_base.28* %this) unnamed_addr nounwind uwtable inlinehint alwaysinline align 2 {
  %1 = alloca %struct.ap_int_base.28*, align 8    ; [#uses=2 type=%struct.ap_int_base.28**]
  store %struct.ap_int_base.28* %this, %struct.ap_int_base.28** %1, align 8
  call void @llvm.dbg.declare(metadata !{%struct.ap_int_base.28** %1}, metadata !9885), !dbg !9887 ; [debug line = 1439:42] [debug variable = this]
  %2 = load %struct.ap_int_base.28** %1           ; [#uses=1 type=%struct.ap_int_base.28*]
  call void @_ZN11ap_int_baseILi11ELb0ELb1EEC2Ev(%struct.ap_int_base.28* %2), !dbg !9888 ; [debug line = 1445:4]
  ret void, !dbg !9888                            ; [debug line = 1445:4]
}

; [#uses=1]
define linkonce_odr %struct.ap_int_base.26* @_ZN11ap_int_baseILi12ELb1ELb1EEaSILi33ELb1EEERS0_RKS_IXT_EXT0_EXleT_Li64EEE(%struct.ap_int_base.26* %this, %struct.ap_int_base.30* %op2) nounwind uwtable inlinehint alwaysinline align 2 {
  %1 = alloca %struct.ap_int_base.26*, align 8    ; [#uses=2 type=%struct.ap_int_base.26**]
  %2 = alloca %struct.ap_int_base.30*, align 8    ; [#uses=2 type=%struct.ap_int_base.30**]
  store %struct.ap_int_base.26* %this, %struct.ap_int_base.26** %1, align 8
  call void @llvm.dbg.declare(metadata !{%struct.ap_int_base.26** %1}, metadata !9889), !dbg !9890 ; [debug line = 1574:56] [debug variable = this]
  store %struct.ap_int_base.30* %op2, %struct.ap_int_base.30** %2, align 8
  call void @llvm.dbg.declare(metadata !{%struct.ap_int_base.30** %2}, metadata !9891), !dbg !9892 ; [debug line = 1574:102] [debug variable = op2]
  %3 = load %struct.ap_int_base.26** %1           ; [#uses=2 type=%struct.ap_int_base.26*]
  %4 = load %struct.ap_int_base.30** %2, align 8, !dbg !9893 ; [#uses=1 type=%struct.ap_int_base.30*] [debug line = 1575:9]
  %5 = bitcast %struct.ap_int_base.30* %4 to %struct.ssdm_int.31*, !dbg !9893 ; [#uses=1 type=%struct.ssdm_int.31*] [debug line = 1575:9]
  %6 = getelementptr inbounds %struct.ssdm_int.31* %5, i32 0, i32 0, !dbg !9893 ; [#uses=1 type=i33*] [debug line = 1575:9]
  %7 = load i33* %6, align 8, !dbg !9893          ; [#uses=1 type=i33] [debug line = 1575:9]
  %8 = trunc i33 %7 to i12, !dbg !9893            ; [#uses=1 type=i12] [debug line = 1575:9]
  %9 = bitcast %struct.ap_int_base.26* %3 to %struct.ssdm_int.27*, !dbg !9893 ; [#uses=1 type=%struct.ssdm_int.27*] [debug line = 1575:9]
  %10 = getelementptr inbounds %struct.ssdm_int.27* %9, i32 0, i32 0, !dbg !9893 ; [#uses=1 type=i12*] [debug line = 1575:9]
  store i12 %8, i12* %10, align 2, !dbg !9893     ; [debug line = 1575:9]
  ret %struct.ap_int_base.26* %3, !dbg !9895      ; [debug line = 1576:9]
}

; [#uses=1]
define linkonce_odr void @_ZmiILi11ELb0EEN11ap_int_baseIXT_EXT0_EXleT_Li64EEE5RTypeIXLi32EEXLb1EEE5minusERKS1_i(%struct.ap_int_base.30* noalias sret %agg.result, %struct.ap_int_base.28* %op, i32 %i_op) nounwind uwtable inlinehint alwaysinline {
  %1 = alloca %struct.ap_int_base.28*, align 8    ; [#uses=2 type=%struct.ap_int_base.28**]
  %2 = alloca i32, align 4                        ; [#uses=2 type=i32*]
  %3 = alloca %struct.ap_fixed_base.14, align 4   ; [#uses=2 type=%struct.ap_fixed_base.14*]
  store %struct.ap_int_base.28* %op, %struct.ap_int_base.28** %1, align 8
  call void @llvm.dbg.declare(metadata !{%struct.ap_int_base.28** %1}, metadata !9896), !dbg !9897 ; [debug line = 3468:0] [debug variable = op]
  store i32 %i_op, i32* %2, align 4
  call void @llvm.dbg.declare(metadata !{i32* %2}, metadata !9898), !dbg !9897 ; [debug line = 3468:0] [debug variable = i_op]
  %4 = load %struct.ap_int_base.28** %1, align 8, !dbg !9899 ; [#uses=1 type=%struct.ap_int_base.28*] [debug line = 3468:0]
  %5 = load i32* %2, align 4, !dbg !9899          ; [#uses=1 type=i32] [debug line = 3468:0]
  call void @_ZN11ap_int_baseILi32ELb1ELb1EEC1Ei(%struct.ap_fixed_base.14* %3, i32 %5), !dbg !9899 ; [debug line = 3468:0]
  call void @_ZmiILi11ELb0ELi32ELb1EEN11ap_int_baseIXT_EXT0_EXleT_Li64EEE5RTypeIXT1_EXT2_EE5minusERKS1_RKS0_IXT1_EXT2_EXleT1_Li64EEE(%struct.ap_int_base.30* sret %agg.result, %struct.ap_int_base.28* %4, %struct.ap_fixed_base.14* %3), !dbg !9899 ; [debug line = 3468:0]
  ret void, !dbg !9899                            ; [debug line = 3468:0]
}

; [#uses=1]
define linkonce_odr void @_ZN11ap_int_baseILi54ELb1ELb1EEC1Ev(%struct.ap_int_base.32* %this) unnamed_addr nounwind uwtable inlinehint alwaysinline align 2 {
  %1 = alloca %struct.ap_int_base.32*, align 8    ; [#uses=2 type=%struct.ap_int_base.32**]
  store %struct.ap_int_base.32* %this, %struct.ap_int_base.32** %1, align 8
  call void @llvm.dbg.declare(metadata !{%struct.ap_int_base.32** %1}, metadata !9901), !dbg !9903 ; [debug line = 1439:42] [debug variable = this]
  %2 = load %struct.ap_int_base.32** %1           ; [#uses=1 type=%struct.ap_int_base.32*]
  call void @_ZN11ap_int_baseILi54ELb1ELb1EEC2Ev(%struct.ap_int_base.32* %2), !dbg !9904 ; [debug line = 1445:4]
  ret void, !dbg !9904                            ; [debug line = 1445:4]
}

; [#uses=1]
declare i54 @llvm.part.set.i54.i32(i54, i32, i32, i32) nounwind readnone

; [#uses=1]
define linkonce_odr %struct.ap_int_base.32* @_ZN11ap_int_baseILi54ELb1ELb1EEaSILi55ELb1EEERS0_RKS_IXT_EXT0_EXleT_Li64EEE(%struct.ap_int_base.32* %this, %struct.ap_int_base.34* %op2) nounwind uwtable inlinehint alwaysinline align 2 {
  %1 = alloca %struct.ap_int_base.32*, align 8    ; [#uses=2 type=%struct.ap_int_base.32**]
  %2 = alloca %struct.ap_int_base.34*, align 8    ; [#uses=2 type=%struct.ap_int_base.34**]
  store %struct.ap_int_base.32* %this, %struct.ap_int_base.32** %1, align 8
  call void @llvm.dbg.declare(metadata !{%struct.ap_int_base.32** %1}, metadata !9905), !dbg !9906 ; [debug line = 1574:56] [debug variable = this]
  store %struct.ap_int_base.34* %op2, %struct.ap_int_base.34** %2, align 8
  call void @llvm.dbg.declare(metadata !{%struct.ap_int_base.34** %2}, metadata !9907), !dbg !9908 ; [debug line = 1574:102] [debug variable = op2]
  %3 = load %struct.ap_int_base.32** %1           ; [#uses=2 type=%struct.ap_int_base.32*]
  %4 = load %struct.ap_int_base.34** %2, align 8, !dbg !9909 ; [#uses=1 type=%struct.ap_int_base.34*] [debug line = 1575:9]
  %5 = bitcast %struct.ap_int_base.34* %4 to %struct.ssdm_int.35*, !dbg !9909 ; [#uses=1 type=%struct.ssdm_int.35*] [debug line = 1575:9]
  %6 = getelementptr inbounds %struct.ssdm_int.35* %5, i32 0, i32 0, !dbg !9909 ; [#uses=1 type=i55*] [debug line = 1575:9]
  %7 = load i55* %6, align 8, !dbg !9909          ; [#uses=1 type=i55] [debug line = 1575:9]
  %8 = trunc i55 %7 to i54, !dbg !9909            ; [#uses=1 type=i54] [debug line = 1575:9]
  %9 = bitcast %struct.ap_int_base.32* %3 to %struct.ssdm_int.33*, !dbg !9909 ; [#uses=1 type=%struct.ssdm_int.33*] [debug line = 1575:9]
  %10 = getelementptr inbounds %struct.ssdm_int.33* %9, i32 0, i32 0, !dbg !9909 ; [#uses=1 type=i54*] [debug line = 1575:9]
  store i54 %8, i54* %10, align 8, !dbg !9909     ; [debug line = 1575:9]
  ret %struct.ap_int_base.32* %3, !dbg !9911      ; [debug line = 1576:9]
}

; [#uses=1]
define linkonce_odr void @_ZNK11ap_int_baseILi54ELb1ELb1EEngEv(%struct.ap_int_base.34* noalias sret %agg.result, %struct.ap_int_base.32* %this) nounwind uwtable inlinehint alwaysinline align 2 {
  %1 = alloca %struct.ap_int_base.32*, align 8    ; [#uses=2 type=%struct.ap_int_base.32**]
  %2 = alloca %struct.ap_int_base.36, align 1     ; [#uses=2 type=%struct.ap_int_base.36*]
  store %struct.ap_int_base.32* %this, %struct.ap_int_base.32** %1, align 8
  call void @llvm.dbg.declare(metadata !{%struct.ap_int_base.32** %1}, metadata !9912), !dbg !9914 ; [debug line = 1877:23] [debug variable = this]
  %3 = load %struct.ap_int_base.32** %1           ; [#uses=1 type=%struct.ap_int_base.32*]
  call void @_ZN11ap_int_baseILi1ELb0ELb1EEC1Ei(%struct.ap_int_base.36* %2, i32 0), !dbg !9915 ; [debug line = 1878:16]
  call void @_ZmiILi1ELb0ELi54ELb1EEN11ap_int_baseIXT_EXT0_EXleT_Li64EEE5RTypeIXT1_EXT2_EE5minusERKS1_RKS0_IXT1_EXT2_EXleT1_Li64EEE(%struct.ap_int_base.34* sret %agg.result, %struct.ap_int_base.36* %2, %struct.ap_int_base.32* %3), !dbg !9915 ; [debug line = 1878:16]
  ret void, !dbg !9915                            ; [debug line = 1878:16]
}

; [#uses=1]
define linkonce_odr void @_ZmiILi1ELb0ELi54ELb1EEN11ap_int_baseIXT_EXT0_EXleT_Li64EEE5RTypeIXT1_EXT2_EE5minusERKS1_RKS0_IXT1_EXT2_EXleT1_Li64EEE(%struct.ap_int_base.34* noalias sret %agg.result, %struct.ap_int_base.36* %op, %struct.ap_int_base.32* %op2) nounwind uwtable inlinehint alwaysinline {
  %1 = alloca %struct.ap_int_base.36*, align 8    ; [#uses=2 type=%struct.ap_int_base.36**]
  %2 = alloca %struct.ap_int_base.32*, align 8    ; [#uses=2 type=%struct.ap_int_base.32**]
  %lhs = alloca %struct.ap_int_base.34, align 8   ; [#uses=2 type=%struct.ap_int_base.34*]
  %rhs = alloca %struct.ap_int_base.34, align 8   ; [#uses=2 type=%struct.ap_int_base.34*]
  store %struct.ap_int_base.36* %op, %struct.ap_int_base.36** %1, align 8
  call void @llvm.dbg.declare(metadata !{%struct.ap_int_base.36** %1}, metadata !9917), !dbg !9918 ; [debug line = 3370:217] [debug variable = op]
  store %struct.ap_int_base.32* %op2, %struct.ap_int_base.32** %2, align 8
  call void @llvm.dbg.declare(metadata !{%struct.ap_int_base.32** %2}, metadata !9919), !dbg !9920 ; [debug line = 3370:255] [debug variable = op2]
  call void @llvm.dbg.declare(metadata !{%struct.ap_int_base.34* %lhs}, metadata !9921), !dbg !9923 ; [debug line = 3370:0] [debug variable = lhs]
  %3 = load %struct.ap_int_base.36** %1, align 8, !dbg !9923 ; [#uses=1 type=%struct.ap_int_base.36*] [debug line = 3370:0]
  call void @_ZN11ap_int_baseILi55ELb1ELb1EEC1ILi1ELb0EEERKS_IXT_EXT0_EXleT_Li64EEE(%struct.ap_int_base.34* %lhs, %struct.ap_int_base.36* %3), !dbg !9923 ; [debug line = 3370:0]
  call void @llvm.dbg.declare(metadata !{%struct.ap_int_base.34* %rhs}, metadata !9924), !dbg !9923 ; [debug line = 3370:0] [debug variable = rhs]
  %4 = load %struct.ap_int_base.32** %2, align 8, !dbg !9923 ; [#uses=1 type=%struct.ap_int_base.32*] [debug line = 3370:0]
  call void @_ZN11ap_int_baseILi55ELb1ELb1EEC1ILi54ELb1EEERKS_IXT_EXT0_EXleT_Li64EEE(%struct.ap_int_base.34* %rhs, %struct.ap_int_base.32* %4), !dbg !9923 ; [debug line = 3370:0]
  call void @llvm.dbg.declare(metadata !{%struct.ap_int_base.34* %agg.result}, metadata !9925), !dbg !9923 ; [debug line = 3370:0] [debug variable = r]
  call void @_ZN11ap_int_baseILi55ELb1ELb1EEC1Ev(%struct.ap_int_base.34* %agg.result), !dbg !9923 ; [debug line = 3370:0]
  %5 = bitcast %struct.ap_int_base.34* %lhs to %struct.ssdm_int.35*, !dbg !9923 ; [#uses=1 type=%struct.ssdm_int.35*] [debug line = 3370:0]
  %6 = getelementptr inbounds %struct.ssdm_int.35* %5, i32 0, i32 0, !dbg !9923 ; [#uses=1 type=i55*] [debug line = 3370:0]
  %7 = load i55* %6, align 8, !dbg !9923          ; [#uses=1 type=i55] [debug line = 3370:0]
  %8 = bitcast %struct.ap_int_base.34* %rhs to %struct.ssdm_int.35*, !dbg !9923 ; [#uses=1 type=%struct.ssdm_int.35*] [debug line = 3370:0]
  %9 = getelementptr inbounds %struct.ssdm_int.35* %8, i32 0, i32 0, !dbg !9923 ; [#uses=1 type=i55*] [debug line = 3370:0]
  %10 = load i55* %9, align 8, !dbg !9923         ; [#uses=1 type=i55] [debug line = 3370:0]
  %11 = sub nsw i55 %7, %10, !dbg !9923           ; [#uses=1 type=i55] [debug line = 3370:0]
  %12 = bitcast %struct.ap_int_base.34* %agg.result to %struct.ssdm_int.35*, !dbg !9923 ; [#uses=1 type=%struct.ssdm_int.35*] [debug line = 3370:0]
  %13 = getelementptr inbounds %struct.ssdm_int.35* %12, i32 0, i32 0, !dbg !9923 ; [#uses=1 type=i55*] [debug line = 3370:0]
  store i55 %11, i55* %13, align 8, !dbg !9923    ; [debug line = 3370:0]
  ret void, !dbg !9923                            ; [debug line = 3370:0]
}

; [#uses=1]
define linkonce_odr void @_ZN11ap_int_baseILi1ELb0ELb1EEC1Ei(%struct.ap_int_base.36* %this, i32 %op) unnamed_addr nounwind uwtable inlinehint alwaysinline align 2 {
  %1 = alloca %struct.ap_int_base.36*, align 8    ; [#uses=2 type=%struct.ap_int_base.36**]
  %2 = alloca i32, align 4                        ; [#uses=2 type=i32*]
  store %struct.ap_int_base.36* %this, %struct.ap_int_base.36** %1, align 8
  call void @llvm.dbg.declare(metadata !{%struct.ap_int_base.36** %1}, metadata !9927), !dbg !9929 ; [debug line = 1466:52] [debug variable = this]
  store i32 %op, i32* %2, align 4
  call void @llvm.dbg.declare(metadata !{i32* %2}, metadata !9930), !dbg !9931 ; [debug line = 1466:68] [debug variable = op]
  %3 = load %struct.ap_int_base.36** %1           ; [#uses=1 type=%struct.ap_int_base.36*]
  %4 = load i32* %2, align 4, !dbg !9932          ; [#uses=1 type=i32] [debug line = 1466:88]
  call void @_ZN11ap_int_baseILi1ELb0ELb1EEC2Ei(%struct.ap_int_base.36* %3, i32 %4), !dbg !9932 ; [debug line = 1466:88]
  ret void, !dbg !9932                            ; [debug line = 1466:88]
}

; [#uses=1]
define linkonce_odr void @_ZN11ap_int_baseILi1ELb0ELb1EEC2Ei(%struct.ap_int_base.36* %this, i32 %op) unnamed_addr nounwind uwtable inlinehint alwaysinline align 2 {
  %1 = alloca %struct.ap_int_base.36*, align 8    ; [#uses=2 type=%struct.ap_int_base.36**]
  %2 = alloca i32, align 4                        ; [#uses=2 type=i32*]
  store %struct.ap_int_base.36* %this, %struct.ap_int_base.36** %1, align 8
  call void @llvm.dbg.declare(metadata !{%struct.ap_int_base.36** %1}, metadata !9933), !dbg !9934 ; [debug line = 1466:52] [debug variable = this]
  store i32 %op, i32* %2, align 4
  call void @llvm.dbg.declare(metadata !{i32* %2}, metadata !9935), !dbg !9936 ; [debug line = 1466:68] [debug variable = op]
  %3 = load %struct.ap_int_base.36** %1           ; [#uses=2 type=%struct.ap_int_base.36*]
  %4 = bitcast %struct.ap_int_base.36* %3 to %struct.ssdm_int.37*, !dbg !9937 ; [#uses=1 type=%struct.ssdm_int.37*] [debug line = 1466:72]
  call void @_ZN8ssdm_intILi1ELb0EEC2Ev(%struct.ssdm_int.37* %4), !dbg !9937 ; [debug line = 1466:72]
  %5 = load i32* %2, align 4, !dbg !9938          ; [#uses=1 type=i32] [debug line = 1466:74]
  %6 = trunc i32 %5 to i1, !dbg !9938             ; [#uses=1 type=i1] [debug line = 1466:74]
  %7 = bitcast %struct.ap_int_base.36* %3 to %struct.ssdm_int.37*, !dbg !9938 ; [#uses=1 type=%struct.ssdm_int.37*] [debug line = 1466:74]
  %8 = getelementptr inbounds %struct.ssdm_int.37* %7, i32 0, i32 0, !dbg !9938 ; [#uses=1 type=i1*] [debug line = 1466:74]
  store i1 %6, i1* %8, align 1, !dbg !9938        ; [debug line = 1466:74]
  ret void, !dbg !9940                            ; [debug line = 1466:88]
}

; [#uses=1]
define linkonce_odr void @_ZN8ssdm_intILi1ELb0EEC2Ev(%struct.ssdm_int.37* %this) unnamed_addr nounwind uwtable inlinehint alwaysinline align 2 {
  %1 = alloca %struct.ssdm_int.37*, align 8       ; [#uses=2 type=%struct.ssdm_int.37**]
  store %struct.ssdm_int.37* %this, %struct.ssdm_int.37** %1, align 8
  call void @llvm.dbg.declare(metadata !{%struct.ssdm_int.37** %1}, metadata !9941), !dbg !9943 ; [debug line = 3:0] [debug variable = this]
  %2 = load %struct.ssdm_int.37** %1              ; [#uses=0 type=%struct.ssdm_int.37*]
  ret void, !dbg !9944                            ; [debug line = 3:0]
}

; [#uses=1]
define linkonce_odr void @_ZN11ap_int_baseILi55ELb1ELb1EEC1ILi1ELb0EEERKS_IXT_EXT0_EXleT_Li64EEE(%struct.ap_int_base.34* %this, %struct.ap_int_base.36* %op) unnamed_addr nounwind uwtable inlinehint alwaysinline align 2 {
  %1 = alloca %struct.ap_int_base.34*, align 8    ; [#uses=2 type=%struct.ap_int_base.34**]
  %2 = alloca %struct.ap_int_base.36*, align 8    ; [#uses=2 type=%struct.ap_int_base.36**]
  store %struct.ap_int_base.34* %this, %struct.ap_int_base.34** %1, align 8
  call void @llvm.dbg.declare(metadata !{%struct.ap_int_base.34** %1}, metadata !9946), !dbg !9948 ; [debug line = 1451:43] [debug variable = this]
  store %struct.ap_int_base.36* %op, %struct.ap_int_base.36** %2, align 8
  call void @llvm.dbg.declare(metadata !{%struct.ap_int_base.36** %2}, metadata !9949), !dbg !9950 ; [debug line = 1451:89] [debug variable = op]
  %3 = load %struct.ap_int_base.34** %1           ; [#uses=1 type=%struct.ap_int_base.34*]
  %4 = load %struct.ap_int_base.36** %2, !dbg !9951 ; [#uses=1 type=%struct.ap_int_base.36*] [debug line = 1451:111]
  call void @_ZN11ap_int_baseILi55ELb1ELb1EEC2ILi1ELb0EEERKS_IXT_EXT0_EXleT_Li64EEE(%struct.ap_int_base.34* %3, %struct.ap_int_base.36* %4), !dbg !9951 ; [debug line = 1451:111]
  ret void, !dbg !9951                            ; [debug line = 1451:111]
}

; [#uses=1]
define linkonce_odr void @_ZN11ap_int_baseILi55ELb1ELb1EEC1ILi54ELb1EEERKS_IXT_EXT0_EXleT_Li64EEE(%struct.ap_int_base.34* %this, %struct.ap_int_base.32* %op) unnamed_addr nounwind uwtable inlinehint alwaysinline align 2 {
  %1 = alloca %struct.ap_int_base.34*, align 8    ; [#uses=2 type=%struct.ap_int_base.34**]
  %2 = alloca %struct.ap_int_base.32*, align 8    ; [#uses=2 type=%struct.ap_int_base.32**]
  store %struct.ap_int_base.34* %this, %struct.ap_int_base.34** %1, align 8
  call void @llvm.dbg.declare(metadata !{%struct.ap_int_base.34** %1}, metadata !9952), !dbg !9953 ; [debug line = 1451:43] [debug variable = this]
  store %struct.ap_int_base.32* %op, %struct.ap_int_base.32** %2, align 8
  call void @llvm.dbg.declare(metadata !{%struct.ap_int_base.32** %2}, metadata !9954), !dbg !9955 ; [debug line = 1451:89] [debug variable = op]
  %3 = load %struct.ap_int_base.34** %1           ; [#uses=1 type=%struct.ap_int_base.34*]
  %4 = load %struct.ap_int_base.32** %2, !dbg !9956 ; [#uses=1 type=%struct.ap_int_base.32*] [debug line = 1451:111]
  call void @_ZN11ap_int_baseILi55ELb1ELb1EEC2ILi54ELb1EEERKS_IXT_EXT0_EXleT_Li64EEE(%struct.ap_int_base.34* %3, %struct.ap_int_base.32* %4), !dbg !9956 ; [debug line = 1451:111]
  ret void, !dbg !9956                            ; [debug line = 1451:111]
}

; [#uses=1]
define linkonce_odr void @_ZN11ap_int_baseILi55ELb1ELb1EEC1Ev(%struct.ap_int_base.34* %this) unnamed_addr nounwind uwtable inlinehint alwaysinline align 2 {
  %1 = alloca %struct.ap_int_base.34*, align 8    ; [#uses=2 type=%struct.ap_int_base.34**]
  store %struct.ap_int_base.34* %this, %struct.ap_int_base.34** %1, align 8
  call void @llvm.dbg.declare(metadata !{%struct.ap_int_base.34** %1}, metadata !9957), !dbg !9958 ; [debug line = 1439:42] [debug variable = this]
  %2 = load %struct.ap_int_base.34** %1           ; [#uses=1 type=%struct.ap_int_base.34*]
  call void @_ZN11ap_int_baseILi55ELb1ELb1EEC2Ev(%struct.ap_int_base.34* %2), !dbg !9959 ; [debug line = 1445:4]
  ret void, !dbg !9959                            ; [debug line = 1445:4]
}

; [#uses=1]
define linkonce_odr void @_ZN11ap_int_baseILi55ELb1ELb1EEC2Ev(%struct.ap_int_base.34* %this) unnamed_addr nounwind uwtable inlinehint alwaysinline align 2 {
  %1 = alloca %struct.ap_int_base.34*, align 8    ; [#uses=2 type=%struct.ap_int_base.34**]
  store %struct.ap_int_base.34* %this, %struct.ap_int_base.34** %1, align 8
  call void @llvm.dbg.declare(metadata !{%struct.ap_int_base.34** %1}, metadata !9960), !dbg !9961 ; [debug line = 1439:42] [debug variable = this]
  %2 = load %struct.ap_int_base.34** %1           ; [#uses=1 type=%struct.ap_int_base.34*]
  %3 = bitcast %struct.ap_int_base.34* %2 to %struct.ssdm_int.35*, !dbg !9962 ; [#uses=1 type=%struct.ssdm_int.35*] [debug line = 1439:56]
  call void @_ZN8ssdm_intILi55ELb1EEC2Ev(%struct.ssdm_int.35* %3), !dbg !9962 ; [debug line = 1439:56]
  ret void, !dbg !9963                            ; [debug line = 1445:4]
}

; [#uses=3]
define linkonce_odr void @_ZN8ssdm_intILi55ELb1EEC2Ev(%struct.ssdm_int.35* %this) unnamed_addr nounwind uwtable inlinehint alwaysinline align 2 {
  %1 = alloca %struct.ssdm_int.35*, align 8       ; [#uses=2 type=%struct.ssdm_int.35**]
  store %struct.ssdm_int.35* %this, %struct.ssdm_int.35** %1, align 8
  call void @llvm.dbg.declare(metadata !{%struct.ssdm_int.35** %1}, metadata !9965), !dbg !9967 ; [debug line = 57:137] [debug variable = this]
  %2 = load %struct.ssdm_int.35** %1              ; [#uses=0 type=%struct.ssdm_int.35*]
  ret void, !dbg !9968                            ; [debug line = 57:171]
}

; [#uses=1]
define linkonce_odr void @_ZN11ap_int_baseILi55ELb1ELb1EEC2ILi54ELb1EEERKS_IXT_EXT0_EXleT_Li64EEE(%struct.ap_int_base.34* %this, %struct.ap_int_base.32* %op) unnamed_addr nounwind uwtable inlinehint alwaysinline align 2 {
  %1 = alloca %struct.ap_int_base.34*, align 8    ; [#uses=2 type=%struct.ap_int_base.34**]
  %2 = alloca %struct.ap_int_base.32*, align 8    ; [#uses=2 type=%struct.ap_int_base.32**]
  store %struct.ap_int_base.34* %this, %struct.ap_int_base.34** %1, align 8
  call void @llvm.dbg.declare(metadata !{%struct.ap_int_base.34** %1}, metadata !9970), !dbg !9971 ; [debug line = 1451:43] [debug variable = this]
  store %struct.ap_int_base.32* %op, %struct.ap_int_base.32** %2, align 8
  call void @llvm.dbg.declare(metadata !{%struct.ap_int_base.32** %2}, metadata !9972), !dbg !9973 ; [debug line = 1451:89] [debug variable = op]
  %3 = load %struct.ap_int_base.34** %1           ; [#uses=2 type=%struct.ap_int_base.34*]
  %4 = bitcast %struct.ap_int_base.34* %3 to %struct.ssdm_int.35*, !dbg !9974 ; [#uses=1 type=%struct.ssdm_int.35*] [debug line = 1451:93]
  call void @_ZN8ssdm_intILi55ELb1EEC2Ev(%struct.ssdm_int.35* %4), !dbg !9974 ; [debug line = 1451:93]
  %5 = load %struct.ap_int_base.32** %2, align 8, !dbg !9975 ; [#uses=1 type=%struct.ap_int_base.32*] [debug line = 1451:95]
  %6 = bitcast %struct.ap_int_base.32* %5 to %struct.ssdm_int.33*, !dbg !9975 ; [#uses=1 type=%struct.ssdm_int.33*] [debug line = 1451:95]
  %7 = getelementptr inbounds %struct.ssdm_int.33* %6, i32 0, i32 0, !dbg !9975 ; [#uses=1 type=i54*] [debug line = 1451:95]
  %8 = load i54* %7, align 8, !dbg !9975          ; [#uses=1 type=i54] [debug line = 1451:95]
  %9 = sext i54 %8 to i55, !dbg !9975             ; [#uses=1 type=i55] [debug line = 1451:95]
  %10 = bitcast %struct.ap_int_base.34* %3 to %struct.ssdm_int.35*, !dbg !9975 ; [#uses=1 type=%struct.ssdm_int.35*] [debug line = 1451:95]
  %11 = getelementptr inbounds %struct.ssdm_int.35* %10, i32 0, i32 0, !dbg !9975 ; [#uses=1 type=i55*] [debug line = 1451:95]
  store i55 %9, i55* %11, align 8, !dbg !9975     ; [debug line = 1451:95]
  ret void, !dbg !9977                            ; [debug line = 1451:111]
}

; [#uses=1]
define linkonce_odr void @_ZN11ap_int_baseILi55ELb1ELb1EEC2ILi1ELb0EEERKS_IXT_EXT0_EXleT_Li64EEE(%struct.ap_int_base.34* %this, %struct.ap_int_base.36* %op) unnamed_addr nounwind uwtable inlinehint alwaysinline align 2 {
  %1 = alloca %struct.ap_int_base.34*, align 8    ; [#uses=2 type=%struct.ap_int_base.34**]
  %2 = alloca %struct.ap_int_base.36*, align 8    ; [#uses=2 type=%struct.ap_int_base.36**]
  store %struct.ap_int_base.34* %this, %struct.ap_int_base.34** %1, align 8
  call void @llvm.dbg.declare(metadata !{%struct.ap_int_base.34** %1}, metadata !9978), !dbg !9979 ; [debug line = 1451:43] [debug variable = this]
  store %struct.ap_int_base.36* %op, %struct.ap_int_base.36** %2, align 8
  call void @llvm.dbg.declare(metadata !{%struct.ap_int_base.36** %2}, metadata !9980), !dbg !9981 ; [debug line = 1451:89] [debug variable = op]
  %3 = load %struct.ap_int_base.34** %1           ; [#uses=2 type=%struct.ap_int_base.34*]
  %4 = bitcast %struct.ap_int_base.34* %3 to %struct.ssdm_int.35*, !dbg !9982 ; [#uses=1 type=%struct.ssdm_int.35*] [debug line = 1451:93]
  call void @_ZN8ssdm_intILi55ELb1EEC2Ev(%struct.ssdm_int.35* %4), !dbg !9982 ; [debug line = 1451:93]
  %5 = load %struct.ap_int_base.36** %2, align 8, !dbg !9983 ; [#uses=1 type=%struct.ap_int_base.36*] [debug line = 1451:95]
  %6 = bitcast %struct.ap_int_base.36* %5 to %struct.ssdm_int.37*, !dbg !9983 ; [#uses=1 type=%struct.ssdm_int.37*] [debug line = 1451:95]
  %7 = getelementptr inbounds %struct.ssdm_int.37* %6, i32 0, i32 0, !dbg !9983 ; [#uses=1 type=i1*] [debug line = 1451:95]
  %8 = load i1* %7, align 1, !dbg !9983           ; [#uses=1 type=i1] [debug line = 1451:95]
  %9 = zext i1 %8 to i55, !dbg !9983              ; [#uses=1 type=i55] [debug line = 1451:95]
  %10 = bitcast %struct.ap_int_base.34* %3 to %struct.ssdm_int.35*, !dbg !9983 ; [#uses=1 type=%struct.ssdm_int.35*] [debug line = 1451:95]
  %11 = getelementptr inbounds %struct.ssdm_int.35* %10, i32 0, i32 0, !dbg !9983 ; [#uses=1 type=i55*] [debug line = 1451:95]
  store i55 %9, i55* %11, align 8, !dbg !9983     ; [debug line = 1451:95]
  ret void, !dbg !9985                            ; [debug line = 1451:111]
}

; [#uses=1]
define linkonce_odr void @_ZN11ap_int_baseILi54ELb1ELb1EEC2Ev(%struct.ap_int_base.32* %this) unnamed_addr nounwind uwtable inlinehint alwaysinline align 2 {
  %1 = alloca %struct.ap_int_base.32*, align 8    ; [#uses=2 type=%struct.ap_int_base.32**]
  store %struct.ap_int_base.32* %this, %struct.ap_int_base.32** %1, align 8
  call void @llvm.dbg.declare(metadata !{%struct.ap_int_base.32** %1}, metadata !9986), !dbg !9987 ; [debug line = 1439:42] [debug variable = this]
  %2 = load %struct.ap_int_base.32** %1           ; [#uses=1 type=%struct.ap_int_base.32*]
  %3 = bitcast %struct.ap_int_base.32* %2 to %struct.ssdm_int.33*, !dbg !9988 ; [#uses=1 type=%struct.ssdm_int.33*] [debug line = 1439:56]
  call void @_ZN8ssdm_intILi54ELb1EEC2Ev(%struct.ssdm_int.33* %3), !dbg !9988 ; [debug line = 1439:56]
  ret void, !dbg !9989                            ; [debug line = 1445:4]
}

; [#uses=1]
define linkonce_odr void @_ZN8ssdm_intILi54ELb1EEC2Ev(%struct.ssdm_int.33* %this) unnamed_addr nounwind uwtable inlinehint alwaysinline align 2 {
  %1 = alloca %struct.ssdm_int.33*, align 8       ; [#uses=2 type=%struct.ssdm_int.33**]
  store %struct.ssdm_int.33* %this, %struct.ssdm_int.33** %1, align 8
  call void @llvm.dbg.declare(metadata !{%struct.ssdm_int.33** %1}, metadata !9991), !dbg !9993 ; [debug line = 56:137] [debug variable = this]
  %2 = load %struct.ssdm_int.33** %1              ; [#uses=0 type=%struct.ssdm_int.33*]
  ret void, !dbg !9994                            ; [debug line = 56:171]
}

; [#uses=1]
define linkonce_odr void @_ZmiILi11ELb0ELi32ELb1EEN11ap_int_baseIXT_EXT0_EXleT_Li64EEE5RTypeIXT1_EXT2_EE5minusERKS1_RKS0_IXT1_EXT2_EXleT1_Li64EEE(%struct.ap_int_base.30* noalias sret %agg.result, %struct.ap_int_base.28* %op, %struct.ap_fixed_base.14* %op2) nounwind uwtable inlinehint alwaysinline {
  %1 = alloca %struct.ap_int_base.28*, align 8    ; [#uses=2 type=%struct.ap_int_base.28**]
  %2 = alloca %struct.ap_fixed_base.14*, align 8  ; [#uses=2 type=%struct.ap_fixed_base.14**]
  %lhs = alloca %struct.ap_int_base.30, align 8   ; [#uses=2 type=%struct.ap_int_base.30*]
  %rhs = alloca %struct.ap_int_base.30, align 8   ; [#uses=2 type=%struct.ap_int_base.30*]
  store %struct.ap_int_base.28* %op, %struct.ap_int_base.28** %1, align 8
  call void @llvm.dbg.declare(metadata !{%struct.ap_int_base.28** %1}, metadata !9996), !dbg !9997 ; [debug line = 3370:217] [debug variable = op]
  store %struct.ap_fixed_base.14* %op2, %struct.ap_fixed_base.14** %2, align 8
  call void @llvm.dbg.declare(metadata !{%struct.ap_fixed_base.14** %2}, metadata !9998), !dbg !9999 ; [debug line = 3370:255] [debug variable = op2]
  call void @llvm.dbg.declare(metadata !{%struct.ap_int_base.30* %lhs}, metadata !10000), !dbg !10002 ; [debug line = 3370:0] [debug variable = lhs]
  %3 = load %struct.ap_int_base.28** %1, align 8, !dbg !10002 ; [#uses=1 type=%struct.ap_int_base.28*] [debug line = 3370:0]
  call void @_ZN11ap_int_baseILi33ELb1ELb1EEC1ILi11ELb0EEERKS_IXT_EXT0_EXleT_Li64EEE(%struct.ap_int_base.30* %lhs, %struct.ap_int_base.28* %3), !dbg !10002 ; [debug line = 3370:0]
  call void @llvm.dbg.declare(metadata !{%struct.ap_int_base.30* %rhs}, metadata !10003), !dbg !10002 ; [debug line = 3370:0] [debug variable = rhs]
  %4 = load %struct.ap_fixed_base.14** %2, align 8, !dbg !10002 ; [#uses=1 type=%struct.ap_fixed_base.14*] [debug line = 3370:0]
  call void @_ZN11ap_int_baseILi33ELb1ELb1EEC1ILi32ELb1EEERKS_IXT_EXT0_EXleT_Li64EEE(%struct.ap_int_base.30* %rhs, %struct.ap_fixed_base.14* %4), !dbg !10002 ; [debug line = 3370:0]
  call void @llvm.dbg.declare(metadata !{%struct.ap_int_base.30* %agg.result}, metadata !10004), !dbg !10002 ; [debug line = 3370:0] [debug variable = r]
  call void @_ZN11ap_int_baseILi33ELb1ELb1EEC1Ev(%struct.ap_int_base.30* %agg.result), !dbg !10002 ; [debug line = 3370:0]
  %5 = bitcast %struct.ap_int_base.30* %lhs to %struct.ssdm_int.31*, !dbg !10002 ; [#uses=1 type=%struct.ssdm_int.31*] [debug line = 3370:0]
  %6 = getelementptr inbounds %struct.ssdm_int.31* %5, i32 0, i32 0, !dbg !10002 ; [#uses=1 type=i33*] [debug line = 3370:0]
  %7 = load i33* %6, align 8, !dbg !10002         ; [#uses=1 type=i33] [debug line = 3370:0]
  %8 = bitcast %struct.ap_int_base.30* %rhs to %struct.ssdm_int.31*, !dbg !10002 ; [#uses=1 type=%struct.ssdm_int.31*] [debug line = 3370:0]
  %9 = getelementptr inbounds %struct.ssdm_int.31* %8, i32 0, i32 0, !dbg !10002 ; [#uses=1 type=i33*] [debug line = 3370:0]
  %10 = load i33* %9, align 8, !dbg !10002        ; [#uses=1 type=i33] [debug line = 3370:0]
  %11 = sub nsw i33 %7, %10, !dbg !10002          ; [#uses=1 type=i33] [debug line = 3370:0]
  %12 = bitcast %struct.ap_int_base.30* %agg.result to %struct.ssdm_int.31*, !dbg !10002 ; [#uses=1 type=%struct.ssdm_int.31*] [debug line = 3370:0]
  %13 = getelementptr inbounds %struct.ssdm_int.31* %12, i32 0, i32 0, !dbg !10002 ; [#uses=1 type=i33*] [debug line = 3370:0]
  store i33 %11, i33* %13, align 8, !dbg !10002   ; [debug line = 3370:0]
  ret void, !dbg !10002                           ; [debug line = 3370:0]
}

; [#uses=1]
define linkonce_odr void @_ZN11ap_int_baseILi32ELb1ELb1EEC1Ei(%struct.ap_fixed_base.14* %this, i32 %op) unnamed_addr nounwind uwtable inlinehint alwaysinline align 2 {
  %1 = alloca %struct.ap_fixed_base.14*, align 8  ; [#uses=2 type=%struct.ap_fixed_base.14**]
  %2 = alloca i32, align 4                        ; [#uses=2 type=i32*]
  store %struct.ap_fixed_base.14* %this, %struct.ap_fixed_base.14** %1, align 8
  call void @llvm.dbg.declare(metadata !{%struct.ap_fixed_base.14** %1}, metadata !10006), !dbg !10008 ; [debug line = 1466:52] [debug variable = this]
  store i32 %op, i32* %2, align 4
  call void @llvm.dbg.declare(metadata !{i32* %2}, metadata !10009), !dbg !10010 ; [debug line = 1466:68] [debug variable = op]
  %3 = load %struct.ap_fixed_base.14** %1         ; [#uses=1 type=%struct.ap_fixed_base.14*]
  %4 = load i32* %2, align 4, !dbg !10011         ; [#uses=1 type=i32] [debug line = 1466:88]
  call void @_ZN11ap_int_baseILi32ELb1ELb1EEC2Ei(%struct.ap_fixed_base.14* %3, i32 %4), !dbg !10011 ; [debug line = 1466:88]
  ret void, !dbg !10011                           ; [debug line = 1466:88]
}

; [#uses=1]
define linkonce_odr void @_ZN11ap_int_baseILi32ELb1ELb1EEC2Ei(%struct.ap_fixed_base.14* %this, i32 %op) unnamed_addr nounwind uwtable inlinehint alwaysinline align 2 {
  %1 = alloca %struct.ap_fixed_base.14*, align 8  ; [#uses=2 type=%struct.ap_fixed_base.14**]
  %2 = alloca i32, align 4                        ; [#uses=2 type=i32*]
  store %struct.ap_fixed_base.14* %this, %struct.ap_fixed_base.14** %1, align 8
  call void @llvm.dbg.declare(metadata !{%struct.ap_fixed_base.14** %1}, metadata !10012), !dbg !10013 ; [debug line = 1466:52] [debug variable = this]
  store i32 %op, i32* %2, align 4
  call void @llvm.dbg.declare(metadata !{i32* %2}, metadata !10014), !dbg !10015 ; [debug line = 1466:68] [debug variable = op]
  %3 = load %struct.ap_fixed_base.14** %1         ; [#uses=2 type=%struct.ap_fixed_base.14*]
  %4 = bitcast %struct.ap_fixed_base.14* %3 to %struct.ssdm_int.15*, !dbg !10016 ; [#uses=1 type=%struct.ssdm_int.15*] [debug line = 1466:72]
  call void @_ZN8ssdm_intILi32ELb1EEC2Ev(%struct.ssdm_int.15* %4), !dbg !10016 ; [debug line = 1466:72]
  %5 = load i32* %2, align 4, !dbg !10017         ; [#uses=1 type=i32] [debug line = 1466:74]
  %6 = bitcast %struct.ap_fixed_base.14* %3 to %struct.ssdm_int.15*, !dbg !10017 ; [#uses=1 type=%struct.ssdm_int.15*] [debug line = 1466:74]
  %7 = getelementptr inbounds %struct.ssdm_int.15* %6, i32 0, i32 0, !dbg !10017 ; [#uses=1 type=i32*] [debug line = 1466:74]
  store i32 %5, i32* %7, align 4, !dbg !10017     ; [debug line = 1466:74]
  ret void, !dbg !10019                           ; [debug line = 1466:88]
}

; [#uses=1]
define linkonce_odr void @_ZN11ap_int_baseILi33ELb1ELb1EEC1ILi11ELb0EEERKS_IXT_EXT0_EXleT_Li64EEE(%struct.ap_int_base.30* %this, %struct.ap_int_base.28* %op) unnamed_addr nounwind uwtable inlinehint alwaysinline align 2 {
  %1 = alloca %struct.ap_int_base.30*, align 8    ; [#uses=2 type=%struct.ap_int_base.30**]
  %2 = alloca %struct.ap_int_base.28*, align 8    ; [#uses=2 type=%struct.ap_int_base.28**]
  store %struct.ap_int_base.30* %this, %struct.ap_int_base.30** %1, align 8
  call void @llvm.dbg.declare(metadata !{%struct.ap_int_base.30** %1}, metadata !10020), !dbg !10021 ; [debug line = 1451:43] [debug variable = this]
  store %struct.ap_int_base.28* %op, %struct.ap_int_base.28** %2, align 8
  call void @llvm.dbg.declare(metadata !{%struct.ap_int_base.28** %2}, metadata !10022), !dbg !10023 ; [debug line = 1451:89] [debug variable = op]
  %3 = load %struct.ap_int_base.30** %1           ; [#uses=1 type=%struct.ap_int_base.30*]
  %4 = load %struct.ap_int_base.28** %2, !dbg !10024 ; [#uses=1 type=%struct.ap_int_base.28*] [debug line = 1451:111]
  call void @_ZN11ap_int_baseILi33ELb1ELb1EEC2ILi11ELb0EEERKS_IXT_EXT0_EXleT_Li64EEE(%struct.ap_int_base.30* %3, %struct.ap_int_base.28* %4), !dbg !10024 ; [debug line = 1451:111]
  ret void, !dbg !10024                           ; [debug line = 1451:111]
}

; [#uses=1]
define linkonce_odr void @_ZN11ap_int_baseILi33ELb1ELb1EEC1ILi32ELb1EEERKS_IXT_EXT0_EXleT_Li64EEE(%struct.ap_int_base.30* %this, %struct.ap_fixed_base.14* %op) unnamed_addr nounwind uwtable inlinehint alwaysinline align 2 {
  %1 = alloca %struct.ap_int_base.30*, align 8    ; [#uses=2 type=%struct.ap_int_base.30**]
  %2 = alloca %struct.ap_fixed_base.14*, align 8  ; [#uses=2 type=%struct.ap_fixed_base.14**]
  store %struct.ap_int_base.30* %this, %struct.ap_int_base.30** %1, align 8
  call void @llvm.dbg.declare(metadata !{%struct.ap_int_base.30** %1}, metadata !10025), !dbg !10026 ; [debug line = 1451:43] [debug variable = this]
  store %struct.ap_fixed_base.14* %op, %struct.ap_fixed_base.14** %2, align 8
  call void @llvm.dbg.declare(metadata !{%struct.ap_fixed_base.14** %2}, metadata !10027), !dbg !10028 ; [debug line = 1451:89] [debug variable = op]
  %3 = load %struct.ap_int_base.30** %1           ; [#uses=1 type=%struct.ap_int_base.30*]
  %4 = load %struct.ap_fixed_base.14** %2, !dbg !10029 ; [#uses=1 type=%struct.ap_fixed_base.14*] [debug line = 1451:111]
  call void @_ZN11ap_int_baseILi33ELb1ELb1EEC2ILi32ELb1EEERKS_IXT_EXT0_EXleT_Li64EEE(%struct.ap_int_base.30* %3, %struct.ap_fixed_base.14* %4), !dbg !10029 ; [debug line = 1451:111]
  ret void, !dbg !10029                           ; [debug line = 1451:111]
}

; [#uses=1]
define linkonce_odr void @_ZN11ap_int_baseILi33ELb1ELb1EEC1Ev(%struct.ap_int_base.30* %this) unnamed_addr nounwind uwtable inlinehint alwaysinline align 2 {
  %1 = alloca %struct.ap_int_base.30*, align 8    ; [#uses=2 type=%struct.ap_int_base.30**]
  store %struct.ap_int_base.30* %this, %struct.ap_int_base.30** %1, align 8
  call void @llvm.dbg.declare(metadata !{%struct.ap_int_base.30** %1}, metadata !10030), !dbg !10031 ; [debug line = 1439:42] [debug variable = this]
  %2 = load %struct.ap_int_base.30** %1           ; [#uses=1 type=%struct.ap_int_base.30*]
  call void @_ZN11ap_int_baseILi33ELb1ELb1EEC2Ev(%struct.ap_int_base.30* %2), !dbg !10032 ; [debug line = 1445:4]
  ret void, !dbg !10032                           ; [debug line = 1445:4]
}

; [#uses=1]
define linkonce_odr void @_ZN11ap_int_baseILi33ELb1ELb1EEC2Ev(%struct.ap_int_base.30* %this) unnamed_addr nounwind uwtable inlinehint alwaysinline align 2 {
  %1 = alloca %struct.ap_int_base.30*, align 8    ; [#uses=2 type=%struct.ap_int_base.30**]
  store %struct.ap_int_base.30* %this, %struct.ap_int_base.30** %1, align 8
  call void @llvm.dbg.declare(metadata !{%struct.ap_int_base.30** %1}, metadata !10033), !dbg !10034 ; [debug line = 1439:42] [debug variable = this]
  %2 = load %struct.ap_int_base.30** %1           ; [#uses=1 type=%struct.ap_int_base.30*]
  %3 = bitcast %struct.ap_int_base.30* %2 to %struct.ssdm_int.31*, !dbg !10035 ; [#uses=1 type=%struct.ssdm_int.31*] [debug line = 1439:56]
  call void @_ZN8ssdm_intILi33ELb1EEC2Ev(%struct.ssdm_int.31* %3), !dbg !10035 ; [debug line = 1439:56]
  ret void, !dbg !10036                           ; [debug line = 1445:4]
}

; [#uses=3]
define linkonce_odr void @_ZN8ssdm_intILi33ELb1EEC2Ev(%struct.ssdm_int.31* %this) unnamed_addr nounwind uwtable inlinehint alwaysinline align 2 {
  %1 = alloca %struct.ssdm_int.31*, align 8       ; [#uses=2 type=%struct.ssdm_int.31**]
  store %struct.ssdm_int.31* %this, %struct.ssdm_int.31** %1, align 8
  call void @llvm.dbg.declare(metadata !{%struct.ssdm_int.31** %1}, metadata !10038), !dbg !10040 ; [debug line = 35:137] [debug variable = this]
  %2 = load %struct.ssdm_int.31** %1              ; [#uses=0 type=%struct.ssdm_int.31*]
  ret void, !dbg !10041                           ; [debug line = 35:171]
}

; [#uses=1]
define linkonce_odr void @_ZN11ap_int_baseILi33ELb1ELb1EEC2ILi32ELb1EEERKS_IXT_EXT0_EXleT_Li64EEE(%struct.ap_int_base.30* %this, %struct.ap_fixed_base.14* %op) unnamed_addr nounwind uwtable inlinehint alwaysinline align 2 {
  %1 = alloca %struct.ap_int_base.30*, align 8    ; [#uses=2 type=%struct.ap_int_base.30**]
  %2 = alloca %struct.ap_fixed_base.14*, align 8  ; [#uses=2 type=%struct.ap_fixed_base.14**]
  store %struct.ap_int_base.30* %this, %struct.ap_int_base.30** %1, align 8
  call void @llvm.dbg.declare(metadata !{%struct.ap_int_base.30** %1}, metadata !10043), !dbg !10044 ; [debug line = 1451:43] [debug variable = this]
  store %struct.ap_fixed_base.14* %op, %struct.ap_fixed_base.14** %2, align 8
  call void @llvm.dbg.declare(metadata !{%struct.ap_fixed_base.14** %2}, metadata !10045), !dbg !10046 ; [debug line = 1451:89] [debug variable = op]
  %3 = load %struct.ap_int_base.30** %1           ; [#uses=2 type=%struct.ap_int_base.30*]
  %4 = bitcast %struct.ap_int_base.30* %3 to %struct.ssdm_int.31*, !dbg !10047 ; [#uses=1 type=%struct.ssdm_int.31*] [debug line = 1451:93]
  call void @_ZN8ssdm_intILi33ELb1EEC2Ev(%struct.ssdm_int.31* %4), !dbg !10047 ; [debug line = 1451:93]
  %5 = load %struct.ap_fixed_base.14** %2, align 8, !dbg !10048 ; [#uses=1 type=%struct.ap_fixed_base.14*] [debug line = 1451:95]
  %6 = bitcast %struct.ap_fixed_base.14* %5 to %struct.ssdm_int.15*, !dbg !10048 ; [#uses=1 type=%struct.ssdm_int.15*] [debug line = 1451:95]
  %7 = getelementptr inbounds %struct.ssdm_int.15* %6, i32 0, i32 0, !dbg !10048 ; [#uses=1 type=i32*] [debug line = 1451:95]
  %8 = load i32* %7, align 4, !dbg !10048         ; [#uses=1 type=i32] [debug line = 1451:95]
  %9 = sext i32 %8 to i33, !dbg !10048            ; [#uses=1 type=i33] [debug line = 1451:95]
  %10 = bitcast %struct.ap_int_base.30* %3 to %struct.ssdm_int.31*, !dbg !10048 ; [#uses=1 type=%struct.ssdm_int.31*] [debug line = 1451:95]
  %11 = getelementptr inbounds %struct.ssdm_int.31* %10, i32 0, i32 0, !dbg !10048 ; [#uses=1 type=i33*] [debug line = 1451:95]
  store i33 %9, i33* %11, align 8, !dbg !10048    ; [debug line = 1451:95]
  ret void, !dbg !10050                           ; [debug line = 1451:111]
}

; [#uses=1]
define linkonce_odr void @_ZN11ap_int_baseILi33ELb1ELb1EEC2ILi11ELb0EEERKS_IXT_EXT0_EXleT_Li64EEE(%struct.ap_int_base.30* %this, %struct.ap_int_base.28* %op) unnamed_addr nounwind uwtable inlinehint alwaysinline align 2 {
  %1 = alloca %struct.ap_int_base.30*, align 8    ; [#uses=2 type=%struct.ap_int_base.30**]
  %2 = alloca %struct.ap_int_base.28*, align 8    ; [#uses=2 type=%struct.ap_int_base.28**]
  store %struct.ap_int_base.30* %this, %struct.ap_int_base.30** %1, align 8
  call void @llvm.dbg.declare(metadata !{%struct.ap_int_base.30** %1}, metadata !10051), !dbg !10052 ; [debug line = 1451:43] [debug variable = this]
  store %struct.ap_int_base.28* %op, %struct.ap_int_base.28** %2, align 8
  call void @llvm.dbg.declare(metadata !{%struct.ap_int_base.28** %2}, metadata !10053), !dbg !10054 ; [debug line = 1451:89] [debug variable = op]
  %3 = load %struct.ap_int_base.30** %1           ; [#uses=2 type=%struct.ap_int_base.30*]
  %4 = bitcast %struct.ap_int_base.30* %3 to %struct.ssdm_int.31*, !dbg !10055 ; [#uses=1 type=%struct.ssdm_int.31*] [debug line = 1451:93]
  call void @_ZN8ssdm_intILi33ELb1EEC2Ev(%struct.ssdm_int.31* %4), !dbg !10055 ; [debug line = 1451:93]
  %5 = load %struct.ap_int_base.28** %2, align 8, !dbg !10056 ; [#uses=1 type=%struct.ap_int_base.28*] [debug line = 1451:95]
